Archive member included because of file (symbol)

Libraries/libstm32f4xx.a(misc.o)
                              src\Mpu-9250/HalI2c2.o (NVIC_Init)
Libraries/libstm32f4xx.a(stm32f4xx_dma.o)
                              src\Stdout/HalUsart.o (DMA_Init)
Libraries/libstm32f4xx.a(stm32f4xx_exti.o)
                              src\Adis16488/HalSpi.o (EXTI_Init)
Libraries/libstm32f4xx.a(stm32f4xx_gpio.o)
                              src\Stdout/HalUsart.o (GPIO_Init)
Libraries/libstm32f4xx.a(stm32f4xx_i2c.o)
                              src\Mpu-9250/HalI2c2.o (I2C_Init)
Libraries/libstm32f4xx.a(stm32f4xx_rcc.o)
                              src/stm32f4xx_it.o (RCC_HSEConfig)
Libraries/libstm32f4xx.a(stm32f4xx_spi.o)
                              src\Adis16488/HalSpi.o (SPI_Init)
Libraries/libstm32f4xx.a(stm32f4xx_tim.o)
                              src\Servo/HalTim.o (TIM_TimeBaseInit)
Libraries/libstm32f4xx.a(stm32f4xx_usart.o)
                              src\Stdout/HalUsart.o (USART_Init)
Libraries/libstm32f4xx.a(queue.o)
                              src\Stdout/HalUsart.o (xQueueGenericCreate)
Libraries/libstm32f4xx.a(tasks.o)
                              src/main.o (xTaskGenericCreate)
Libraries/libstm32f4xx.a(timers.o)
                              Libraries/libstm32f4xx.a(tasks.o) (xTimerCreateTimerTask)
Libraries/libstm32f4xx.a(port.o)
                              Libraries/libstm32f4xx.a(tasks.o) (pxPortInitialiseStack)
Libraries/libstm32f4xx.a(list.o)
                              Libraries/libstm32f4xx.a(queue.o) (vListInitialise)
Libraries/libstm32f4xx.a(heap_2.o)
                              Libraries/libstm32f4xx.a(queue.o) (pvPortMalloc)
../../yagarto/bin/../arm-none-eabi/lib/thumb\libc.a(lib_a-atexit.o)
                              e:/mydocument/dropbox/futuregadgetresearch/sa/eclipse_stm32/yagarto/bin/../lib/gcc/arm-none-eabi/4.6.2/../../../../arm-none-eabi/lib/thumb/v7m/crt0.o (atexit)
../../yagarto/bin/../arm-none-eabi/lib/thumb\libc.a(lib_a-errno.o)
                              src/syscalls.o (__errno)
../../yagarto/bin/../arm-none-eabi/lib/thumb\libc.a(lib_a-exit.o)
                              e:/mydocument/dropbox/futuregadgetresearch/sa/eclipse_stm32/yagarto/bin/../lib/gcc/arm-none-eabi/4.6.2/../../../../arm-none-eabi/lib/thumb/v7m/crt0.o (exit)
../../yagarto/bin/../arm-none-eabi/lib/thumb\libc.a(lib_a-fini.o)
                              e:/mydocument/dropbox/futuregadgetresearch/sa/eclipse_stm32/yagarto/bin/../lib/gcc/arm-none-eabi/4.6.2/../../../../arm-none-eabi/lib/thumb/v7m/crt0.o (__libc_fini_array)
../../yagarto/bin/../arm-none-eabi/lib/thumb\libc.a(lib_a-impure.o)
                              ../../yagarto/bin/../arm-none-eabi/lib/thumb\libc.a(lib_a-exit.o) (_global_impure_ptr)
../../yagarto/bin/../arm-none-eabi/lib/thumb\libc.a(lib_a-init.o)
                              e:/mydocument/dropbox/futuregadgetresearch/sa/eclipse_stm32/yagarto/bin/../lib/gcc/arm-none-eabi/4.6.2/../../../../arm-none-eabi/lib/thumb/v7m/crt0.o (__libc_init_array)
../../yagarto/bin/../arm-none-eabi/lib/thumb\libc.a(lib_a-malloc.o)
                              src\Stdout/HalUsart.o (malloc)
../../yagarto/bin/../arm-none-eabi/lib/thumb\libc.a(lib_a-mallocr.o)
                              ../../yagarto/bin/../arm-none-eabi/lib/thumb\libc.a(lib_a-malloc.o) (_malloc_r)
../../yagarto/bin/../arm-none-eabi/lib/thumb\libc.a(lib_a-memcmp.o)
                              Libraries/libstm32f4xx.a(tasks.o) (memcmp)
../../yagarto/bin/../arm-none-eabi/lib/thumb\libc.a(lib_a-memcpy.o)
                              Libraries/libstm32f4xx.a(queue.o) (memcpy)
../../yagarto/bin/../arm-none-eabi/lib/thumb\libc.a(lib_a-memset.o)
                              e:/mydocument/dropbox/futuregadgetresearch/sa/eclipse_stm32/yagarto/bin/../lib/gcc/arm-none-eabi/4.6.2/../../../../arm-none-eabi/lib/thumb/v7m/crt0.o (memset)
../../yagarto/bin/../arm-none-eabi/lib/thumb\libc.a(lib_a-mlock.o)
                              ../../yagarto/bin/../arm-none-eabi/lib/thumb\libc.a(lib_a-mallocr.o) (__malloc_lock)
../../yagarto/bin/../arm-none-eabi/lib/thumb\libc.a(lib_a-printf.o)
                              src\Mpu-9250/HalI2c2.o (printf)
../../yagarto/bin/../arm-none-eabi/lib/thumb\libc.a(lib_a-sbrkr.o)
                              ../../yagarto/bin/../arm-none-eabi/lib/thumb\libc.a(lib_a-mallocr.o) (_sbrk_r)
../../yagarto/bin/../arm-none-eabi/lib/thumb\libc.a(lib_a-sprintf.o)
                              Libraries/libstm32f4xx.a(tasks.o) (sprintf)
../../yagarto/bin/../arm-none-eabi/lib/thumb\libc.a(lib_a-strlen.o)
                              Libraries/libstm32f4xx.a(tasks.o) (strlen)
../../yagarto/bin/../arm-none-eabi/lib/thumb\libc.a(lib_a-strncmp.o)
                              src\Stdout/SerialCommand.o (strncmp)
../../yagarto/bin/../arm-none-eabi/lib/thumb\libc.a(lib_a-svfprintf.o)
                              ../../yagarto/bin/../arm-none-eabi/lib/thumb\libc.a(lib_a-sprintf.o) (_svfprintf_r)
../../yagarto/bin/../arm-none-eabi/lib/thumb\libc.a(lib_a-vfprintf.o)
                              ../../yagarto/bin/../arm-none-eabi/lib/thumb\libc.a(lib_a-printf.o) (_vfprintf_r)
../../yagarto/bin/../arm-none-eabi/lib/thumb\libc.a(lib_a-wsetup.o)
                              ../../yagarto/bin/../arm-none-eabi/lib/thumb\libc.a(lib_a-vfprintf.o) (__swsetup_r)
../../yagarto/bin/../arm-none-eabi/lib/thumb\libc.a(lib_a-__atexit.o)
                              ../../yagarto/bin/../arm-none-eabi/lib/thumb\libc.a(lib_a-atexit.o) (__register_exitproc)
../../yagarto/bin/../arm-none-eabi/lib/thumb\libc.a(lib_a-__call_atexit.o)
                              ../../yagarto/bin/../arm-none-eabi/lib/thumb\libc.a(lib_a-exit.o) (__call_exitprocs)
../../yagarto/bin/../arm-none-eabi/lib/thumb\libc.a(lib_a-dtoa.o)
                              ../../yagarto/bin/../arm-none-eabi/lib/thumb\libc.a(lib_a-svfprintf.o) (_dtoa_r)
../../yagarto/bin/../arm-none-eabi/lib/thumb\libc.a(lib_a-fflush.o)
                              ../../yagarto/bin/../arm-none-eabi/lib/thumb\libc.a(lib_a-vfprintf.o) (_fflush_r)
../../yagarto/bin/../arm-none-eabi/lib/thumb\libc.a(lib_a-findfp.o)
                              ../../yagarto/bin/../arm-none-eabi/lib/thumb\libc.a(lib_a-vfprintf.o) (__sinit)
../../yagarto/bin/../arm-none-eabi/lib/thumb\libc.a(lib_a-freer.o)
                              ../../yagarto/bin/../arm-none-eabi/lib/thumb\libc.a(lib_a-malloc.o) (_free_r)
../../yagarto/bin/../arm-none-eabi/lib/thumb\libc.a(lib_a-fwalk.o)
                              ../../yagarto/bin/../arm-none-eabi/lib/thumb\libc.a(lib_a-findfp.o) (_fwalk)
../../yagarto/bin/../arm-none-eabi/lib/thumb\libc.a(lib_a-locale.o)
                              ../../yagarto/bin/../arm-none-eabi/lib/thumb\libc.a(lib_a-svfprintf.o) (_localeconv_r)
../../yagarto/bin/../arm-none-eabi/lib/thumb\libc.a(lib_a-makebuf.o)
                              ../../yagarto/bin/../arm-none-eabi/lib/thumb\libc.a(lib_a-wsetup.o) (__smakebuf_r)
../../yagarto/bin/../arm-none-eabi/lib/thumb\libc.a(lib_a-memchr.o)
                              ../../yagarto/bin/../arm-none-eabi/lib/thumb\libc.a(lib_a-svfprintf.o) (memchr)
../../yagarto/bin/../arm-none-eabi/lib/thumb\libc.a(lib_a-mprec.o)
                              ../../yagarto/bin/../arm-none-eabi/lib/thumb\libc.a(lib_a-dtoa.o) (_Balloc)
../../yagarto/bin/../arm-none-eabi/lib/thumb\libc.a(lib_a-reent.o)
                              ../../yagarto/bin/../arm-none-eabi/lib/thumb\libc.a(lib_a-sbrkr.o) (errno)
../../yagarto/bin/../arm-none-eabi/lib/thumb\libc.a(lib_a-s_fpclassify.o)
                              ../../yagarto/bin/../arm-none-eabi/lib/thumb\libc.a(lib_a-svfprintf.o) (__fpclassifyd)
../../yagarto/bin/../arm-none-eabi/lib/thumb\libc.a(lib_a-stdio.o)
                              ../../yagarto/bin/../arm-none-eabi/lib/thumb\libc.a(lib_a-findfp.o) (__sread)
../../yagarto/bin/../arm-none-eabi/lib/thumb\libc.a(lib_a-strcmp.o)
                              ../../yagarto/bin/../arm-none-eabi/lib/thumb\libc.a(lib_a-locale.o) (strcmp)
../../yagarto/bin/../arm-none-eabi/lib/thumb\libc.a(lib_a-svfiprintf.o)
                              ../../yagarto/bin/../arm-none-eabi/lib/thumb\libc.a(lib_a-svfprintf.o) (__ssprint_r)
../../yagarto/bin/../arm-none-eabi/lib/thumb\libc.a(lib_a-vfiprintf.o)
                              ../../yagarto/bin/../arm-none-eabi/lib/thumb\libc.a(lib_a-vfprintf.o) (__sprint_r)
../../yagarto/bin/../arm-none-eabi/lib/thumb\libc.a(lib_a-callocr.o)
                              ../../yagarto/bin/../arm-none-eabi/lib/thumb\libc.a(lib_a-mprec.o) (_calloc_r)
../../yagarto/bin/../arm-none-eabi/lib/thumb\libc.a(lib_a-fclose.o)
                              ../../yagarto/bin/../arm-none-eabi/lib/thumb\libc.a(lib_a-findfp.o) (fclose)
../../yagarto/bin/../arm-none-eabi/lib/thumb\libc.a(lib_a-fputwc.o)
                              ../../yagarto/bin/../arm-none-eabi/lib/thumb\libc.a(lib_a-vfiprintf.o) (_fputwc_r)
../../yagarto/bin/../arm-none-eabi/lib/thumb\libc.a(lib_a-fvwrite.o)
                              ../../yagarto/bin/../arm-none-eabi/lib/thumb\libc.a(lib_a-vfiprintf.o) (__sfvwrite_r)
../../yagarto/bin/../arm-none-eabi/lib/thumb\libc.a(lib_a-memmove.o)
                              ../../yagarto/bin/../arm-none-eabi/lib/thumb\libc.a(lib_a-svfiprintf.o) (memmove)
../../yagarto/bin/../arm-none-eabi/lib/thumb\libc.a(lib_a-reallocr.o)
                              ../../yagarto/bin/../arm-none-eabi/lib/thumb\libc.a(lib_a-svfiprintf.o) (_realloc_r)
../../yagarto/bin/../arm-none-eabi/lib/thumb\libc.a(lib_a-wbuf.o)
                              ../../yagarto/bin/../arm-none-eabi/lib/thumb\libc.a(lib_a-fputwc.o) (__swbuf_r)
../../yagarto/bin/../arm-none-eabi/lib/thumb\libc.a(lib_a-wcrtomb.o)
                              ../../yagarto/bin/../arm-none-eabi/lib/thumb\libc.a(lib_a-fputwc.o) (_wcrtomb_r)
../../yagarto/bin/../arm-none-eabi/lib/thumb\libc.a(lib_a-wctomb_r.o)
                              ../../yagarto/bin/../arm-none-eabi/lib/thumb\libc.a(lib_a-wcrtomb.o) (__wctomb)
e:/mydocument/dropbox/futuregadgetresearch/sa/eclipse_stm32/yagarto/bin/../lib/gcc/arm-none-eabi/4.6.2/thumb/v7m\libgcc.a(_udivsi3.o)
                              ../../yagarto/bin/../arm-none-eabi/lib/thumb\libc.a(lib_a-svfprintf.o) (__aeabi_uidiv)
e:/mydocument/dropbox/futuregadgetresearch/sa/eclipse_stm32/yagarto/bin/../lib/gcc/arm-none-eabi/4.6.2/thumb/v7m\libgcc.a(_divsi3.o)
                              ../../yagarto/bin/../arm-none-eabi/lib/thumb\libc.a(lib_a-svfprintf.o) (__aeabi_idiv)
e:/mydocument/dropbox/futuregadgetresearch/sa/eclipse_stm32/yagarto/bin/../lib/gcc/arm-none-eabi/4.6.2/thumb/v7m\libgcc.a(_dvmd_tls.o)
                              e:/mydocument/dropbox/futuregadgetresearch/sa/eclipse_stm32/yagarto/bin/../lib/gcc/arm-none-eabi/4.6.2/thumb/v7m\libgcc.a(_udivsi3.o) (__aeabi_idiv0)
e:/mydocument/dropbox/futuregadgetresearch/sa/eclipse_stm32/yagarto/bin/../lib/gcc/arm-none-eabi/4.6.2/thumb/v7m\libgcc.a(_arm_addsubdf3.o)
                              ../../yagarto/bin/../arm-none-eabi/lib/thumb\libc.a(lib_a-dtoa.o) (__aeabi_dsub)
e:/mydocument/dropbox/futuregadgetresearch/sa/eclipse_stm32/yagarto/bin/../lib/gcc/arm-none-eabi/4.6.2/thumb/v7m\libgcc.a(_arm_muldivdf3.o)
                              ../../yagarto/bin/../arm-none-eabi/lib/thumb\libc.a(lib_a-dtoa.o) (__aeabi_dmul)
e:/mydocument/dropbox/futuregadgetresearch/sa/eclipse_stm32/yagarto/bin/../lib/gcc/arm-none-eabi/4.6.2/thumb/v7m\libgcc.a(_arm_cmpdf2.o)
                              ../../yagarto/bin/../arm-none-eabi/lib/thumb\libc.a(lib_a-svfprintf.o) (__aeabi_dcmpeq)
e:/mydocument/dropbox/futuregadgetresearch/sa/eclipse_stm32/yagarto/bin/../lib/gcc/arm-none-eabi/4.6.2/thumb/v7m\libgcc.a(_arm_fixdfsi.o)
                              ../../yagarto/bin/../arm-none-eabi/lib/thumb\libc.a(lib_a-dtoa.o) (__aeabi_d2iz)

Allocating common symbols
Common symbol       size              file

errno               0x4               ../../yagarto/bin/../arm-none-eabi/lib/thumb\libc.a(lib_a-reent.o)

Discarded input sections

 .text          0x00000000        0x0 e:/mydocument/dropbox/futuregadgetresearch/sa/eclipse_stm32/yagarto/bin/../lib/gcc/arm-none-eabi/4.6.2/thumb/v7m/crti.o
 .data          0x00000000        0x0 e:/mydocument/dropbox/futuregadgetresearch/sa/eclipse_stm32/yagarto/bin/../lib/gcc/arm-none-eabi/4.6.2/thumb/v7m/crti.o
 .bss           0x00000000        0x0 e:/mydocument/dropbox/futuregadgetresearch/sa/eclipse_stm32/yagarto/bin/../lib/gcc/arm-none-eabi/4.6.2/thumb/v7m/crti.o
 .data          0x00000000        0x4 e:/mydocument/dropbox/futuregadgetresearch/sa/eclipse_stm32/yagarto/bin/../lib/gcc/arm-none-eabi/4.6.2/thumb/v7m/crtbegin.o
 .text          0x00000000       0x70 e:/mydocument/dropbox/futuregadgetresearch/sa/eclipse_stm32/yagarto/bin/../lib/gcc/arm-none-eabi/4.6.2/../../../../arm-none-eabi/lib/thumb/v7m/crt0.o
 .data          0x00000000        0x0 e:/mydocument/dropbox/futuregadgetresearch/sa/eclipse_stm32/yagarto/bin/../lib/gcc/arm-none-eabi/4.6.2/../../../../arm-none-eabi/lib/thumb/v7m/crt0.o
 .bss           0x00000000        0x0 e:/mydocument/dropbox/futuregadgetresearch/sa/eclipse_stm32/yagarto/bin/../lib/gcc/arm-none-eabi/4.6.2/../../../../arm-none-eabi/lib/thumb/v7m/crt0.o
 .ARM.extab     0x00000000        0x0 e:/mydocument/dropbox/futuregadgetresearch/sa/eclipse_stm32/yagarto/bin/../lib/gcc/arm-none-eabi/4.6.2/../../../../arm-none-eabi/lib/thumb/v7m/crt0.o
 .ARM.exidx     0x00000000        0x8 e:/mydocument/dropbox/futuregadgetresearch/sa/eclipse_stm32/yagarto/bin/../lib/gcc/arm-none-eabi/4.6.2/../../../../arm-none-eabi/lib/thumb/v7m/crt0.o
 .text          0x00000000        0x0 src/stm32f4xx_it.o
 .data          0x00000000        0x0 src/stm32f4xx_it.o
 .bss           0x00000000        0x0 src/stm32f4xx_it.o
 .text          0x00000000        0x0 src/syscalls.o
 .data          0x00000000        0x0 src/syscalls.o
 .bss           0x00000000        0x0 src/syscalls.o
 .text.abort    0x00000000        0x4 src/syscalls.o
 .text          0x00000000        0x0 src/system_stm32f4xx.o
 .data          0x00000000        0x0 src/system_stm32f4xx.o
 .bss           0x00000000        0x0 src/system_stm32f4xx.o
 .text.SystemCoreClockUpdate
                0x00000000       0x90 src/system_stm32f4xx.o
 .data.AHBPrescTable
                0x00000000       0x10 src/system_stm32f4xx.o
 .text          0x00000000        0x0 src\Stdout/HalUsart.o
 .data          0x00000000        0x0 src\Stdout/HalUsart.o
 .bss           0x00000000        0x0 src\Stdout/HalUsart.o
 .text._Z24callbackUsart2CrReceivedPc
                0x00000000        0x4 src\Stdout/HalUsart.o
 .text          0x00000000        0x0 src\Mpu-9250/HalI2c2.o
 .data          0x00000000        0x0 src\Mpu-9250/HalI2c2.o
 .bss           0x00000000        0x0 src\Mpu-9250/HalI2c2.o
 .text          0x00000000        0x0 src\Servo/HalTim.o
 .data          0x00000000        0x0 src\Servo/HalTim.o
 .bss           0x00000000        0x0 src\Servo/HalTim.o
 .text          0x00000000        0x0 src/main.o
 .data          0x00000000        0x0 src/main.o
 .bss           0x00000000        0x0 src/main.o
 .text._Z5Delaym
                0x00000000       0x18 src/main.o
 .text._Z6Delay2m
                0x00000000        0x4 src/main.o
 .data.Count    0x00000000        0x4 src/main.o
 .text          0x00000000        0x0 src/tweak.o
 .data          0x00000000        0x0 src/tweak.o
 .bss           0x00000000        0x0 src/tweak.o
 .text._ZN9__gnu_cxx27__verbose_terminate_handlerEv
                0x00000000        0x4 src/tweak.o
 .text.__cxa_pure_virtual
                0x00000000        0x4 src/tweak.o
 .text._Znwj    0x00000000        0x4 src/tweak.o
 .text._Znaj    0x00000000        0x4 src/tweak.o
 .text._ZdlPv   0x00000000        0x4 src/tweak.o
 .text._ZdaPv   0x00000000        0x4 src/tweak.o
 .bss.__exidx_start
                0x00000000        0x4 src/tweak.o
 .bss.__exidx_end
                0x00000000        0x4 src/tweak.o
 .text          0x00000000        0x0 src\Stdout/SerialCommand.o
 .data          0x00000000        0x0 src\Stdout/SerialCommand.o
 .bss           0x00000000        0x0 src\Stdout/SerialCommand.o
 .text          0x00000000        0x0 src\Adis16488/Adis16488.o
 .data          0x00000000        0x0 src\Adis16488/Adis16488.o
 .bss           0x00000000        0x0 src\Adis16488/Adis16488.o
 .text          0x00000000        0x0 src\Adis16488/HalSpi.o
 .data          0x00000000        0x0 src\Adis16488/HalSpi.o
 .bss           0x00000000        0x0 src\Adis16488/HalSpi.o
 .text          0x00000000       0x14 Libraries/CMSIS/Device/ST/STM32F4xx/Source/Templates/gcc_ride7/startup_stm32f4xx.o
 .data          0x00000000        0x0 Libraries/CMSIS/Device/ST/STM32F4xx/Source/Templates/gcc_ride7/startup_stm32f4xx.o
 .bss           0x00000000        0x0 Libraries/CMSIS/Device/ST/STM32F4xx/Source/Templates/gcc_ride7/startup_stm32f4xx.o
 .text.Default_Handler
                0x00000000        0x2 Libraries/CMSIS/Device/ST/STM32F4xx/Source/Templates/gcc_ride7/startup_stm32f4xx.o
 .text          0x00000000        0x0 Libraries/libstm32f4xx.a(misc.o)
 .data          0x00000000        0x0 Libraries/libstm32f4xx.a(misc.o)
 .bss           0x00000000        0x0 Libraries/libstm32f4xx.a(misc.o)
 .text.NVIC_PriorityGroupConfig
                0x00000000       0x14 Libraries/libstm32f4xx.a(misc.o)
 .text.NVIC_SetVectorTable
                0x00000000       0x18 Libraries/libstm32f4xx.a(misc.o)
 .text.NVIC_SystemLPConfig
                0x00000000       0x1c Libraries/libstm32f4xx.a(misc.o)
 .text.SysTick_CLKSourceConfig
                0x00000000       0x1c Libraries/libstm32f4xx.a(misc.o)
 .text          0x00000000        0x0 Libraries/libstm32f4xx.a(stm32f4xx_dma.o)
 .data          0x00000000        0x0 Libraries/libstm32f4xx.a(stm32f4xx_dma.o)
 .bss           0x00000000        0x0 Libraries/libstm32f4xx.a(stm32f4xx_dma.o)
 .text.DMA_DeInit
                0x00000000      0x1e8 Libraries/libstm32f4xx.a(stm32f4xx_dma.o)
 .text.DMA_PeriphIncOffsetSizeConfig
                0x00000000       0x14 Libraries/libstm32f4xx.a(stm32f4xx_dma.o)
 .text.DMA_FlowControllerConfig
                0x00000000       0x14 Libraries/libstm32f4xx.a(stm32f4xx_dma.o)
 .text.DMA_GetCurrDataCounter
                0x00000000        0x8 Libraries/libstm32f4xx.a(stm32f4xx_dma.o)
 .text.DMA_DoubleBufferModeConfig
                0x00000000       0x18 Libraries/libstm32f4xx.a(stm32f4xx_dma.o)
 .text.DMA_DoubleBufferModeCmd
                0x00000000       0x14 Libraries/libstm32f4xx.a(stm32f4xx_dma.o)
 .text.DMA_MemoryTargetConfig
                0x00000000        0xc Libraries/libstm32f4xx.a(stm32f4xx_dma.o)
 .text.DMA_GetCurrentMemoryTarget
                0x00000000        0x8 Libraries/libstm32f4xx.a(stm32f4xx_dma.o)
 .text.DMA_GetFIFOStatus
                0x00000000        0x8 Libraries/libstm32f4xx.a(stm32f4xx_dma.o)
 .text.DMA_GetFlagStatus
                0x00000000       0x40 Libraries/libstm32f4xx.a(stm32f4xx_dma.o)
 .text          0x00000000        0x0 Libraries/libstm32f4xx.a(stm32f4xx_exti.o)
 .data          0x00000000        0x0 Libraries/libstm32f4xx.a(stm32f4xx_exti.o)
 .bss           0x00000000        0x0 Libraries/libstm32f4xx.a(stm32f4xx_exti.o)
 .text.EXTI_DeInit
                0x00000000       0x20 Libraries/libstm32f4xx.a(stm32f4xx_exti.o)
 .text.EXTI_GenerateSWInterrupt
                0x00000000       0x10 Libraries/libstm32f4xx.a(stm32f4xx_exti.o)
 .text.EXTI_GetFlagStatus
                0x00000000       0x14 Libraries/libstm32f4xx.a(stm32f4xx_exti.o)
 .text.EXTI_ClearFlag
                0x00000000        0xc Libraries/libstm32f4xx.a(stm32f4xx_exti.o)
 .text          0x00000000        0x0 Libraries/libstm32f4xx.a(stm32f4xx_gpio.o)
 .data          0x00000000        0x0 Libraries/libstm32f4xx.a(stm32f4xx_gpio.o)
 .bss           0x00000000        0x0 Libraries/libstm32f4xx.a(stm32f4xx_gpio.o)
 .text.GPIO_DeInit
                0x00000000      0x128 Libraries/libstm32f4xx.a(stm32f4xx_gpio.o)
 .text.GPIO_PinLockConfig
                0x00000000       0x24 Libraries/libstm32f4xx.a(stm32f4xx_gpio.o)
 .text.GPIO_ReadInputDataBit
                0x00000000        0xc Libraries/libstm32f4xx.a(stm32f4xx_gpio.o)
 .text.GPIO_ReadInputData
                0x00000000        0x8 Libraries/libstm32f4xx.a(stm32f4xx_gpio.o)
 .text.GPIO_ReadOutputDataBit
                0x00000000        0xc Libraries/libstm32f4xx.a(stm32f4xx_gpio.o)
 .text.GPIO_ReadOutputData
                0x00000000        0x8 Libraries/libstm32f4xx.a(stm32f4xx_gpio.o)
 .text.GPIO_SetBits
                0x00000000        0x4 Libraries/libstm32f4xx.a(stm32f4xx_gpio.o)
 .text.GPIO_ResetBits
                0x00000000        0x4 Libraries/libstm32f4xx.a(stm32f4xx_gpio.o)
 .text.GPIO_WriteBit
                0x00000000        0xc Libraries/libstm32f4xx.a(stm32f4xx_gpio.o)
 .text.GPIO_ToggleBits
                0x00000000        0x8 Libraries/libstm32f4xx.a(stm32f4xx_gpio.o)
 .text          0x00000000        0x0 Libraries/libstm32f4xx.a(stm32f4xx_i2c.o)
 .data          0x00000000        0x0 Libraries/libstm32f4xx.a(stm32f4xx_i2c.o)
 .bss           0x00000000        0x0 Libraries/libstm32f4xx.a(stm32f4xx_i2c.o)
 .text.I2C_DeInit
                0x00000000       0x70 Libraries/libstm32f4xx.a(stm32f4xx_i2c.o)
 .text.I2C_OwnAddress2Config
                0x00000000       0x14 Libraries/libstm32f4xx.a(stm32f4xx_i2c.o)
 .text.I2C_DualAddressCmd
                0x00000000       0x1c Libraries/libstm32f4xx.a(stm32f4xx_i2c.o)
 .text.I2C_GeneralCallCmd
                0x00000000       0x1c Libraries/libstm32f4xx.a(stm32f4xx_i2c.o)
 .text.I2C_SoftwareResetCmd
                0x00000000       0x1c Libraries/libstm32f4xx.a(stm32f4xx_i2c.o)
 .text.I2C_StretchClockCmd
                0x00000000       0x1c Libraries/libstm32f4xx.a(stm32f4xx_i2c.o)
 .text.I2C_FastModeDutyCycleConfig
                0x00000000       0x20 Libraries/libstm32f4xx.a(stm32f4xx_i2c.o)
 .text.I2C_NACKPositionConfig
                0x00000000       0x20 Libraries/libstm32f4xx.a(stm32f4xx_i2c.o)
 .text.I2C_SMBusAlertConfig
                0x00000000       0x20 Libraries/libstm32f4xx.a(stm32f4xx_i2c.o)
 .text.I2C_ARPCmd
                0x00000000       0x1c Libraries/libstm32f4xx.a(stm32f4xx_i2c.o)
 .text.I2C_SendData
                0x00000000        0x4 Libraries/libstm32f4xx.a(stm32f4xx_i2c.o)
 .text.I2C_ReceiveData
                0x00000000        0x8 Libraries/libstm32f4xx.a(stm32f4xx_i2c.o)
 .text.I2C_TransmitPEC
                0x00000000       0x1c Libraries/libstm32f4xx.a(stm32f4xx_i2c.o)
 .text.I2C_PECPositionConfig
                0x00000000       0x20 Libraries/libstm32f4xx.a(stm32f4xx_i2c.o)
 .text.I2C_CalculatePEC
                0x00000000       0x1c Libraries/libstm32f4xx.a(stm32f4xx_i2c.o)
 .text.I2C_GetPEC
                0x00000000        0x8 Libraries/libstm32f4xx.a(stm32f4xx_i2c.o)
 .text.I2C_CheckEvent
                0x00000000       0x1c Libraries/libstm32f4xx.a(stm32f4xx_i2c.o)
 .text.I2C_GetLastEvent
                0x00000000       0x10 Libraries/libstm32f4xx.a(stm32f4xx_i2c.o)
 .text.I2C_GetFlagStatus
                0x00000000       0x38 Libraries/libstm32f4xx.a(stm32f4xx_i2c.o)
 .text.I2C_ClearFlag
                0x00000000        0x8 Libraries/libstm32f4xx.a(stm32f4xx_i2c.o)
 .text          0x00000000        0x0 Libraries/libstm32f4xx.a(stm32f4xx_rcc.o)
 .data          0x00000000        0x0 Libraries/libstm32f4xx.a(stm32f4xx_rcc.o)
 .bss           0x00000000        0x0 Libraries/libstm32f4xx.a(stm32f4xx_rcc.o)
 .text.RCC_DeInit
                0x00000000       0x38 Libraries/libstm32f4xx.a(stm32f4xx_rcc.o)
 .text.RCC_WaitForHSEStartUp
                0x00000000       0x34 Libraries/libstm32f4xx.a(stm32f4xx_rcc.o)
 .text.RCC_AdjustHSICalibrationValue
                0x00000000       0x18 Libraries/libstm32f4xx.a(stm32f4xx_rcc.o)
 .text.RCC_HSICmd
                0x00000000        0xc Libraries/libstm32f4xx.a(stm32f4xx_rcc.o)
 .text.RCC_LSEConfig
                0x00000000       0x20 Libraries/libstm32f4xx.a(stm32f4xx_rcc.o)
 .text.RCC_LSICmd
                0x00000000        0xc Libraries/libstm32f4xx.a(stm32f4xx_rcc.o)
 .text.RCC_PLLConfig
                0x00000000       0x24 Libraries/libstm32f4xx.a(stm32f4xx_rcc.o)
 .text.RCC_PLLI2SConfig
                0x00000000       0x14 Libraries/libstm32f4xx.a(stm32f4xx_rcc.o)
 .text.RCC_PLLI2SCmd
                0x00000000        0xc Libraries/libstm32f4xx.a(stm32f4xx_rcc.o)
 .text.RCC_ClockSecuritySystemCmd
                0x00000000        0xc Libraries/libstm32f4xx.a(stm32f4xx_rcc.o)
 .text.RCC_MCO1Config
                0x00000000       0x18 Libraries/libstm32f4xx.a(stm32f4xx_rcc.o)
 .text.RCC_MCO2Config
                0x00000000       0x18 Libraries/libstm32f4xx.a(stm32f4xx_rcc.o)
 .text.RCC_GetSYSCLKSource
                0x00000000       0x10 Libraries/libstm32f4xx.a(stm32f4xx_rcc.o)
 .text.RCC_HCLKConfig
                0x00000000       0x14 Libraries/libstm32f4xx.a(stm32f4xx_rcc.o)
 .text.RCC_PCLK1Config
                0x00000000       0x14 Libraries/libstm32f4xx.a(stm32f4xx_rcc.o)
 .text.RCC_PCLK2Config
                0x00000000       0x18 Libraries/libstm32f4xx.a(stm32f4xx_rcc.o)
 .text.RCC_RTCCLKConfig
                0x00000000       0x38 Libraries/libstm32f4xx.a(stm32f4xx_rcc.o)
 .text.RCC_RTCCLKCmd
                0x00000000        0xc Libraries/libstm32f4xx.a(stm32f4xx_rcc.o)
 .text.RCC_BackupResetCmd
                0x00000000        0xc Libraries/libstm32f4xx.a(stm32f4xx_rcc.o)
 .text.RCC_I2SCLKConfig
                0x00000000        0xc Libraries/libstm32f4xx.a(stm32f4xx_rcc.o)
 .text.RCC_AHB2PeriphClockCmd
                0x00000000       0x1c Libraries/libstm32f4xx.a(stm32f4xx_rcc.o)
 .text.RCC_AHB3PeriphClockCmd
                0x00000000       0x1c Libraries/libstm32f4xx.a(stm32f4xx_rcc.o)
 .text.RCC_AHB1PeriphResetCmd
                0x00000000       0x1c Libraries/libstm32f4xx.a(stm32f4xx_rcc.o)
 .text.RCC_AHB2PeriphResetCmd
                0x00000000       0x1c Libraries/libstm32f4xx.a(stm32f4xx_rcc.o)
 .text.RCC_AHB3PeriphResetCmd
                0x00000000       0x1c Libraries/libstm32f4xx.a(stm32f4xx_rcc.o)
 .text.RCC_APB1PeriphResetCmd
                0x00000000       0x1c Libraries/libstm32f4xx.a(stm32f4xx_rcc.o)
 .text.RCC_APB2PeriphResetCmd
                0x00000000       0x1c Libraries/libstm32f4xx.a(stm32f4xx_rcc.o)
 .text.RCC_AHB1PeriphClockLPModeCmd
                0x00000000       0x1c Libraries/libstm32f4xx.a(stm32f4xx_rcc.o)
 .text.RCC_AHB2PeriphClockLPModeCmd
                0x00000000       0x1c Libraries/libstm32f4xx.a(stm32f4xx_rcc.o)
 .text.RCC_AHB3PeriphClockLPModeCmd
                0x00000000       0x1c Libraries/libstm32f4xx.a(stm32f4xx_rcc.o)
 .text.RCC_APB1PeriphClockLPModeCmd
                0x00000000       0x1c Libraries/libstm32f4xx.a(stm32f4xx_rcc.o)
 .text.RCC_APB2PeriphClockLPModeCmd
                0x00000000       0x1c Libraries/libstm32f4xx.a(stm32f4xx_rcc.o)
 .text.RCC_ClearFlag
                0x00000000       0x14 Libraries/libstm32f4xx.a(stm32f4xx_rcc.o)
 .text          0x00000000        0x0 Libraries/libstm32f4xx.a(stm32f4xx_spi.o)
 .data          0x00000000        0x0 Libraries/libstm32f4xx.a(stm32f4xx_spi.o)
 .bss           0x00000000        0x0 Libraries/libstm32f4xx.a(stm32f4xx_spi.o)
 .text.SPI_I2S_DeInit
                0x00000000       0x70 Libraries/libstm32f4xx.a(stm32f4xx_spi.o)
 .text.I2S_Init
                0x00000000       0xec Libraries/libstm32f4xx.a(stm32f4xx_spi.o)
 .text.SPI_StructInit
                0x00000000       0x18 Libraries/libstm32f4xx.a(stm32f4xx_spi.o)
 .text.I2S_StructInit
                0x00000000       0x14 Libraries/libstm32f4xx.a(stm32f4xx_spi.o)
 .text.I2S_Cmd  0x00000000       0x1c Libraries/libstm32f4xx.a(stm32f4xx_spi.o)
 .text.SPI_DataSizeConfig
                0x00000000       0x18 Libraries/libstm32f4xx.a(stm32f4xx_spi.o)
 .text.SPI_BiDirectionalLineConfig
                0x00000000       0x20 Libraries/libstm32f4xx.a(stm32f4xx_spi.o)
 .text.SPI_NSSInternalSoftwareConfig
                0x00000000       0x20 Libraries/libstm32f4xx.a(stm32f4xx_spi.o)
 .text.SPI_TIModeCmd
                0x00000000       0x1c Libraries/libstm32f4xx.a(stm32f4xx_spi.o)
 .text.I2S_FullDuplexConfig
                0x00000000       0x50 Libraries/libstm32f4xx.a(stm32f4xx_spi.o)
 .text.SPI_I2S_ReceiveData
                0x00000000        0x8 Libraries/libstm32f4xx.a(stm32f4xx_spi.o)
 .text.SPI_I2S_SendData
                0x00000000        0x4 Libraries/libstm32f4xx.a(stm32f4xx_spi.o)
 .text.SPI_CalculateCRC
                0x00000000       0x1c Libraries/libstm32f4xx.a(stm32f4xx_spi.o)
 .text.SPI_TransmitCRC
                0x00000000        0xc Libraries/libstm32f4xx.a(stm32f4xx_spi.o)
 .text.SPI_GetCRC
                0x00000000       0x10 Libraries/libstm32f4xx.a(stm32f4xx_spi.o)
 .text.SPI_GetCRCPolynomial
                0x00000000        0x8 Libraries/libstm32f4xx.a(stm32f4xx_spi.o)
 .text.SPI_I2S_ITConfig
                0x00000000       0x20 Libraries/libstm32f4xx.a(stm32f4xx_spi.o)
 .text.SPI_I2S_GetFlagStatus
                0x00000000        0xc Libraries/libstm32f4xx.a(stm32f4xx_spi.o)
 .text.SPI_I2S_ClearFlag
                0x00000000        0x8 Libraries/libstm32f4xx.a(stm32f4xx_spi.o)
 .text.SPI_I2S_GetITStatus
                0x00000000       0x28 Libraries/libstm32f4xx.a(stm32f4xx_spi.o)
 .text.SPI_I2S_ClearITPendingBit
                0x00000000       0x14 Libraries/libstm32f4xx.a(stm32f4xx_spi.o)
 .text          0x00000000        0x0 Libraries/libstm32f4xx.a(stm32f4xx_tim.o)
 .data          0x00000000        0x0 Libraries/libstm32f4xx.a(stm32f4xx_tim.o)
 .bss           0x00000000        0x0 Libraries/libstm32f4xx.a(stm32f4xx_tim.o)
 .text.TIM_DeInit
                0x00000000      0x1d4 Libraries/libstm32f4xx.a(stm32f4xx_tim.o)
 .text.TIM_PrescalerConfig
                0x00000000        0x8 Libraries/libstm32f4xx.a(stm32f4xx_tim.o)
 .text.TIM_CounterModeConfig
                0x00000000       0x10 Libraries/libstm32f4xx.a(stm32f4xx_tim.o)
 .text.TIM_SetCounter
                0x00000000        0x4 Libraries/libstm32f4xx.a(stm32f4xx_tim.o)
 .text.TIM_SetAutoreload
                0x00000000        0x4 Libraries/libstm32f4xx.a(stm32f4xx_tim.o)
 .text.TIM_GetCounter
                0x00000000        0x4 Libraries/libstm32f4xx.a(stm32f4xx_tim.o)
 .text.TIM_GetPrescaler
                0x00000000        0x8 Libraries/libstm32f4xx.a(stm32f4xx_tim.o)
 .text.TIM_UpdateDisableConfig
                0x00000000       0x1c Libraries/libstm32f4xx.a(stm32f4xx_tim.o)
 .text.TIM_UpdateRequestConfig
                0x00000000       0x1c Libraries/libstm32f4xx.a(stm32f4xx_tim.o)
 .text.TIM_ARRPreloadConfig
                0x00000000       0x1c Libraries/libstm32f4xx.a(stm32f4xx_tim.o)
 .text.TIM_SelectOnePulseMode
                0x00000000       0x18 Libraries/libstm32f4xx.a(stm32f4xx_tim.o)
 .text.TIM_SetClockDivision
                0x00000000       0x18 Libraries/libstm32f4xx.a(stm32f4xx_tim.o)
 .text.TIM_OC1Init
                0x00000000       0xa0 Libraries/libstm32f4xx.a(stm32f4xx_tim.o)
 .text.TIM_OC3Init
                0x00000000       0xa4 Libraries/libstm32f4xx.a(stm32f4xx_tim.o)
 .text.TIM_OC4Init
                0x00000000       0x84 Libraries/libstm32f4xx.a(stm32f4xx_tim.o)
 .text.TIM_SelectOCxM
                0x00000000       0x58 Libraries/libstm32f4xx.a(stm32f4xx_tim.o)
 .text.TIM_SetCompare1
                0x00000000        0x4 Libraries/libstm32f4xx.a(stm32f4xx_tim.o)
 .text.TIM_SetCompare2
                0x00000000        0x4 Libraries/libstm32f4xx.a(stm32f4xx_tim.o)
 .text.TIM_SetCompare3
                0x00000000        0x4 Libraries/libstm32f4xx.a(stm32f4xx_tim.o)
 .text.TIM_SetCompare4
                0x00000000        0x4 Libraries/libstm32f4xx.a(stm32f4xx_tim.o)
 .text.TIM_ForcedOC1Config
                0x00000000       0x10 Libraries/libstm32f4xx.a(stm32f4xx_tim.o)
 .text.TIM_ForcedOC2Config
                0x00000000       0x14 Libraries/libstm32f4xx.a(stm32f4xx_tim.o)
 .text.TIM_ForcedOC3Config
                0x00000000       0x10 Libraries/libstm32f4xx.a(stm32f4xx_tim.o)
 .text.TIM_ForcedOC4Config
                0x00000000       0x14 Libraries/libstm32f4xx.a(stm32f4xx_tim.o)
 .text.TIM_OC1PreloadConfig
                0x00000000       0x10 Libraries/libstm32f4xx.a(stm32f4xx_tim.o)
 .text.TIM_OC2PreloadConfig
                0x00000000       0x14 Libraries/libstm32f4xx.a(stm32f4xx_tim.o)
 .text.TIM_OC3PreloadConfig
                0x00000000       0x10 Libraries/libstm32f4xx.a(stm32f4xx_tim.o)
 .text.TIM_OC4PreloadConfig
                0x00000000       0x14 Libraries/libstm32f4xx.a(stm32f4xx_tim.o)
 .text.TIM_OC1FastConfig
                0x00000000       0x10 Libraries/libstm32f4xx.a(stm32f4xx_tim.o)
 .text.TIM_OC2FastConfig
                0x00000000       0x14 Libraries/libstm32f4xx.a(stm32f4xx_tim.o)
 .text.TIM_OC3FastConfig
                0x00000000       0x10 Libraries/libstm32f4xx.a(stm32f4xx_tim.o)
 .text.TIM_OC4FastConfig
                0x00000000       0x14 Libraries/libstm32f4xx.a(stm32f4xx_tim.o)
 .text.TIM_ClearOC1Ref
                0x00000000       0x10 Libraries/libstm32f4xx.a(stm32f4xx_tim.o)
 .text.TIM_ClearOC2Ref
                0x00000000       0x10 Libraries/libstm32f4xx.a(stm32f4xx_tim.o)
 .text.TIM_ClearOC3Ref
                0x00000000       0x10 Libraries/libstm32f4xx.a(stm32f4xx_tim.o)
 .text.TIM_ClearOC4Ref
                0x00000000       0x10 Libraries/libstm32f4xx.a(stm32f4xx_tim.o)
 .text.TIM_OC1PolarityConfig
                0x00000000       0x10 Libraries/libstm32f4xx.a(stm32f4xx_tim.o)
 .text.TIM_OC1NPolarityConfig
                0x00000000       0x10 Libraries/libstm32f4xx.a(stm32f4xx_tim.o)
 .text.TIM_OC2PolarityConfig
                0x00000000       0x14 Libraries/libstm32f4xx.a(stm32f4xx_tim.o)
 .text.TIM_OC2NPolarityConfig
                0x00000000       0x14 Libraries/libstm32f4xx.a(stm32f4xx_tim.o)
 .text.TIM_OC3PolarityConfig
                0x00000000       0x14 Libraries/libstm32f4xx.a(stm32f4xx_tim.o)
 .text.TIM_OC3NPolarityConfig
                0x00000000       0x14 Libraries/libstm32f4xx.a(stm32f4xx_tim.o)
 .text.TIM_OC4PolarityConfig
                0x00000000       0x14 Libraries/libstm32f4xx.a(stm32f4xx_tim.o)
 .text.TIM_CCxCmd
                0x00000000       0x20 Libraries/libstm32f4xx.a(stm32f4xx_tim.o)
 .text.TIM_CCxNCmd
                0x00000000       0x20 Libraries/libstm32f4xx.a(stm32f4xx_tim.o)
 .text.TIM_ICInit
                0x00000000      0x16c Libraries/libstm32f4xx.a(stm32f4xx_tim.o)
 .text.TIM_ICStructInit
                0x00000000       0x10 Libraries/libstm32f4xx.a(stm32f4xx_tim.o)
 .text.TIM_PWMIConfig
                0x00000000      0x164 Libraries/libstm32f4xx.a(stm32f4xx_tim.o)
 .text.TIM_GetCapture1
                0x00000000        0x4 Libraries/libstm32f4xx.a(stm32f4xx_tim.o)
 .text.TIM_GetCapture2
                0x00000000        0x4 Libraries/libstm32f4xx.a(stm32f4xx_tim.o)
 .text.TIM_GetCapture3
                0x00000000        0x4 Libraries/libstm32f4xx.a(stm32f4xx_tim.o)
 .text.TIM_GetCapture4
                0x00000000        0x4 Libraries/libstm32f4xx.a(stm32f4xx_tim.o)
 .text.TIM_SetIC1Prescaler
                0x00000000       0x18 Libraries/libstm32f4xx.a(stm32f4xx_tim.o)
 .text.TIM_SetIC2Prescaler
                0x00000000       0x1c Libraries/libstm32f4xx.a(stm32f4xx_tim.o)
 .text.TIM_SetIC3Prescaler
                0x00000000       0x18 Libraries/libstm32f4xx.a(stm32f4xx_tim.o)
 .text.TIM_SetIC4Prescaler
                0x00000000       0x1c Libraries/libstm32f4xx.a(stm32f4xx_tim.o)
 .text.TIM_BDTRConfig
                0x00000000       0x2c Libraries/libstm32f4xx.a(stm32f4xx_tim.o)
 .text.TIM_BDTRStructInit
                0x00000000       0x14 Libraries/libstm32f4xx.a(stm32f4xx_tim.o)
 .text.TIM_CtrlPWMOutputs
                0x00000000       0x20 Libraries/libstm32f4xx.a(stm32f4xx_tim.o)
 .text.TIM_SelectCOM
                0x00000000       0x1c Libraries/libstm32f4xx.a(stm32f4xx_tim.o)
 .text.TIM_CCPreloadControl
                0x00000000       0x1c Libraries/libstm32f4xx.a(stm32f4xx_tim.o)
 .text.TIM_ITConfig
                0x00000000       0x14 Libraries/libstm32f4xx.a(stm32f4xx_tim.o)
 .text.TIM_GenerateEvent
                0x00000000        0x4 Libraries/libstm32f4xx.a(stm32f4xx_tim.o)
 .text.TIM_GetFlagStatus
                0x00000000        0xc Libraries/libstm32f4xx.a(stm32f4xx_tim.o)
 .text.TIM_ClearFlag
                0x00000000        0x8 Libraries/libstm32f4xx.a(stm32f4xx_tim.o)
 .text.TIM_GetITStatus
                0x00000000       0x18 Libraries/libstm32f4xx.a(stm32f4xx_tim.o)
 .text.TIM_ClearITPendingBit
                0x00000000        0x8 Libraries/libstm32f4xx.a(stm32f4xx_tim.o)
 .text.TIM_DMAConfig
                0x00000000        0x8 Libraries/libstm32f4xx.a(stm32f4xx_tim.o)
 .text.TIM_DMACmd
                0x00000000       0x14 Libraries/libstm32f4xx.a(stm32f4xx_tim.o)
 .text.TIM_SelectCCDMA
                0x00000000       0x1c Libraries/libstm32f4xx.a(stm32f4xx_tim.o)
 .text.TIM_InternalClockConfig
                0x00000000       0x10 Libraries/libstm32f4xx.a(stm32f4xx_tim.o)
 .text.TIM_ITRxExternalClockConfig
                0x00000000       0x1c Libraries/libstm32f4xx.a(stm32f4xx_tim.o)
 .text.TIM_TIxExternalClockConfig
                0x00000000       0x90 Libraries/libstm32f4xx.a(stm32f4xx_tim.o)
 .text.TIM_ETRClockMode1Config
                0x00000000       0x28 Libraries/libstm32f4xx.a(stm32f4xx_tim.o)
 .text.TIM_ETRClockMode2Config
                0x00000000       0x20 Libraries/libstm32f4xx.a(stm32f4xx_tim.o)
 .text.TIM_SelectInputTrigger
                0x00000000       0x10 Libraries/libstm32f4xx.a(stm32f4xx_tim.o)
 .text.TIM_SelectOutputTrigger
                0x00000000       0x18 Libraries/libstm32f4xx.a(stm32f4xx_tim.o)
 .text.TIM_SelectSlaveMode
                0x00000000       0x18 Libraries/libstm32f4xx.a(stm32f4xx_tim.o)
 .text.TIM_SelectMasterSlaveMode
                0x00000000       0x18 Libraries/libstm32f4xx.a(stm32f4xx_tim.o)
 .text.TIM_ETRConfig
                0x00000000       0x18 Libraries/libstm32f4xx.a(stm32f4xx_tim.o)
 .text.TIM_EncoderInterfaceConfig
                0x00000000       0x40 Libraries/libstm32f4xx.a(stm32f4xx_tim.o)
 .text.TIM_SelectHallSensor
                0x00000000       0x1c Libraries/libstm32f4xx.a(stm32f4xx_tim.o)
 .text.TIM_RemapConfig
                0x00000000        0x8 Libraries/libstm32f4xx.a(stm32f4xx_tim.o)
 .text          0x00000000        0x0 Libraries/libstm32f4xx.a(stm32f4xx_usart.o)
 .data          0x00000000        0x0 Libraries/libstm32f4xx.a(stm32f4xx_usart.o)
 .bss           0x00000000        0x0 Libraries/libstm32f4xx.a(stm32f4xx_usart.o)
 .text.USART_DeInit
                0x00000000       0xd4 Libraries/libstm32f4xx.a(stm32f4xx_usart.o)
 .text.USART_ClockInit
                0x00000000       0x24 Libraries/libstm32f4xx.a(stm32f4xx_usart.o)
 .text.USART_ClockStructInit
                0x00000000        0xc Libraries/libstm32f4xx.a(stm32f4xx_usart.o)
 .text.USART_SetPrescaler
                0x00000000       0x14 Libraries/libstm32f4xx.a(stm32f4xx_usart.o)
 .text.USART_OverSampling8Cmd
                0x00000000       0x1c Libraries/libstm32f4xx.a(stm32f4xx_usart.o)
 .text.USART_OneBitMethodCmd
                0x00000000       0x1c Libraries/libstm32f4xx.a(stm32f4xx_usart.o)
 .text.USART_SendData
                0x00000000        0x8 Libraries/libstm32f4xx.a(stm32f4xx_usart.o)
 .text.USART_ReceiveData
                0x00000000        0x8 Libraries/libstm32f4xx.a(stm32f4xx_usart.o)
 .text.USART_SetAddress
                0x00000000       0x18 Libraries/libstm32f4xx.a(stm32f4xx_usart.o)
 .text.USART_ReceiverWakeUpCmd
                0x00000000       0x1c Libraries/libstm32f4xx.a(stm32f4xx_usart.o)
 .text.USART_WakeUpConfig
                0x00000000       0x18 Libraries/libstm32f4xx.a(stm32f4xx_usart.o)
 .text.USART_LINBreakDetectLengthConfig
                0x00000000       0x18 Libraries/libstm32f4xx.a(stm32f4xx_usart.o)
 .text.USART_LINCmd
                0x00000000       0x1c Libraries/libstm32f4xx.a(stm32f4xx_usart.o)
 .text.USART_SendBreak
                0x00000000        0xc Libraries/libstm32f4xx.a(stm32f4xx_usart.o)
 .text.USART_HalfDuplexCmd
                0x00000000       0x1c Libraries/libstm32f4xx.a(stm32f4xx_usart.o)
 .text.USART_SetGuardTime
                0x00000000       0x14 Libraries/libstm32f4xx.a(stm32f4xx_usart.o)
 .text.USART_SmartCardCmd
                0x00000000       0x1c Libraries/libstm32f4xx.a(stm32f4xx_usart.o)
 .text.USART_SmartCardNACKCmd
                0x00000000       0x1c Libraries/libstm32f4xx.a(stm32f4xx_usart.o)
 .text.USART_IrDAConfig
                0x00000000       0x18 Libraries/libstm32f4xx.a(stm32f4xx_usart.o)
 .text.USART_IrDACmd
                0x00000000       0x1c Libraries/libstm32f4xx.a(stm32f4xx_usart.o)
 .text.USART_ITConfig
                0x00000000       0x38 Libraries/libstm32f4xx.a(stm32f4xx_usart.o)
 .text.USART_GetFlagStatus
                0x00000000        0xc Libraries/libstm32f4xx.a(stm32f4xx_usart.o)
 .text.USART_GetITStatus
                0x00000000       0x48 Libraries/libstm32f4xx.a(stm32f4xx_usart.o)
 .text.USART_ClearITPendingBit
                0x00000000       0x10 Libraries/libstm32f4xx.a(stm32f4xx_usart.o)
 .text          0x00000000        0x0 Libraries/libstm32f4xx.a(queue.o)
 .data          0x00000000        0x0 Libraries/libstm32f4xx.a(queue.o)
 .bss           0x00000000        0x0 Libraries/libstm32f4xx.a(queue.o)
 .text.xQueueCreateCountingSemaphore
                0x00000000       0x2c Libraries/libstm32f4xx.a(queue.o)
 .text.xQueueGiveMutexRecursive
                0x00000000       0x34 Libraries/libstm32f4xx.a(queue.o)
 .text.xQueueCreateMutex
                0x00000000       0x54 Libraries/libstm32f4xx.a(queue.o)
 .text.xQueueTakeMutexRecursive
                0x00000000       0x3c Libraries/libstm32f4xx.a(queue.o)
 .text.xQueueReceiveFromISR
                0x00000000       0x88 Libraries/libstm32f4xx.a(queue.o)
 .text.xQueuePeekFromISR
                0x00000000       0x50 Libraries/libstm32f4xx.a(queue.o)
 .text.uxQueueSpacesAvailable
                0x00000000       0x20 Libraries/libstm32f4xx.a(queue.o)
 .text.uxQueueMessagesWaitingFromISR
                0x00000000       0x10 Libraries/libstm32f4xx.a(queue.o)
 .text.vQueueDelete
                0x00000000       0x40 Libraries/libstm32f4xx.a(queue.o)
 .text.ucQueueGetQueueNumber
                0x00000000        0x8 Libraries/libstm32f4xx.a(queue.o)
 .text.vQueueSetQueueNumber
                0x00000000        0x8 Libraries/libstm32f4xx.a(queue.o)
 .text.ucQueueGetQueueType
                0x00000000        0x8 Libraries/libstm32f4xx.a(queue.o)
 .text.xQueueIsQueueEmptyFromISR
                0x00000000       0x18 Libraries/libstm32f4xx.a(queue.o)
 .text.xQueueIsQueueFullFromISR
                0x00000000       0x18 Libraries/libstm32f4xx.a(queue.o)
 .text.vQueueAddToRegistry
                0x00000000       0x28 Libraries/libstm32f4xx.a(queue.o)
 .text.vQueueUnregisterQueue
                0x00000000       0x24 Libraries/libstm32f4xx.a(queue.o)
 .bss.xQueueRegistry
                0x00000000       0x40 Libraries/libstm32f4xx.a(queue.o)
 .text          0x00000000        0x0 Libraries/libstm32f4xx.a(tasks.o)
 .data          0x00000000        0x0 Libraries/libstm32f4xx.a(tasks.o)
 .bss           0x00000000        0x0 Libraries/libstm32f4xx.a(tasks.o)
 .text.vTaskDelete
                0x00000000       0x6c Libraries/libstm32f4xx.a(tasks.o)
 .text.uxTaskPriorityGet
                0x00000000       0x28 Libraries/libstm32f4xx.a(tasks.o)
 .text.vTaskPrioritySet
                0x00000000       0xa8 Libraries/libstm32f4xx.a(tasks.o)
 .text.xTaskIsTaskSuspended
                0x00000000       0x34 Libraries/libstm32f4xx.a(tasks.o)
 .text.vTaskResume
                0x00000000       0x6c Libraries/libstm32f4xx.a(tasks.o)
 .text.xTaskResumeFromISR
                0x00000000       0x9c Libraries/libstm32f4xx.a(tasks.o)
 .text.vTaskEndScheduler
                0x00000000       0x1c Libraries/libstm32f4xx.a(tasks.o)
 .text.xTaskGetTickCountFromISR
                0x00000000       0x1c Libraries/libstm32f4xx.a(tasks.o)
 .text.uxTaskGetNumberOfTasks
                0x00000000        0xc Libraries/libstm32f4xx.a(tasks.o)
 .text.vTaskSuspend
                0x00000000       0x74 Libraries/libstm32f4xx.a(tasks.o)
 .text.uxTaskGetTaskNumber
                0x00000000        0x8 Libraries/libstm32f4xx.a(tasks.o)
 .text.vTaskSetTaskNumber
                0x00000000        0x8 Libraries/libstm32f4xx.a(tasks.o)
 .text.uxTaskGetStackHighWaterMark
                0x00000000       0x28 Libraries/libstm32f4xx.a(tasks.o)
 .text          0x00000000        0x0 Libraries/libstm32f4xx.a(timers.o)
 .data          0x00000000        0x0 Libraries/libstm32f4xx.a(timers.o)
 .bss           0x00000000        0x0 Libraries/libstm32f4xx.a(timers.o)
 .text.xTimerCreate
                0x00000000       0x3c Libraries/libstm32f4xx.a(timers.o)
 .text.xTimerIsTimerActive
                0x00000000       0x18 Libraries/libstm32f4xx.a(timers.o)
 .text.pvTimerGetTimerID
                0x00000000        0x4 Libraries/libstm32f4xx.a(timers.o)
 .text          0x00000000        0x0 Libraries/libstm32f4xx.a(port.o)
 .data          0x00000000        0x0 Libraries/libstm32f4xx.a(port.o)
 .bss           0x00000000        0x0 Libraries/libstm32f4xx.a(port.o)
 .text.vPortEndScheduler
                0x00000000        0x4 Libraries/libstm32f4xx.a(port.o)
 .text          0x00000000        0x0 Libraries/libstm32f4xx.a(list.o)
 .data          0x00000000        0x0 Libraries/libstm32f4xx.a(list.o)
 .bss           0x00000000        0x0 Libraries/libstm32f4xx.a(list.o)
 .text          0x00000000        0x0 Libraries/libstm32f4xx.a(heap_2.o)
 .data          0x00000000        0x0 Libraries/libstm32f4xx.a(heap_2.o)
 .bss           0x00000000        0x0 Libraries/libstm32f4xx.a(heap_2.o)
 .text.xPortGetFreeHeapSize
                0x00000000        0xc Libraries/libstm32f4xx.a(heap_2.o)
 .text.vPortInitialiseBlocks
                0x00000000        0x4 Libraries/libstm32f4xx.a(heap_2.o)
 .text          0x00000000       0x14 ../../yagarto/bin/../arm-none-eabi/lib/thumb\libc.a(lib_a-atexit.o)
 .data          0x00000000        0x0 ../../yagarto/bin/../arm-none-eabi/lib/thumb\libc.a(lib_a-atexit.o)
 .bss           0x00000000        0x0 ../../yagarto/bin/../arm-none-eabi/lib/thumb\libc.a(lib_a-atexit.o)
 .data          0x00000000        0x0 ../../yagarto/bin/../arm-none-eabi/lib/thumb\libc.a(lib_a-errno.o)
 .bss           0x00000000        0x0 ../../yagarto/bin/../arm-none-eabi/lib/thumb\libc.a(lib_a-errno.o)
 .text          0x00000000       0x28 ../../yagarto/bin/../arm-none-eabi/lib/thumb\libc.a(lib_a-exit.o)
 .data          0x00000000        0x0 ../../yagarto/bin/../arm-none-eabi/lib/thumb\libc.a(lib_a-exit.o)
 .bss           0x00000000        0x0 ../../yagarto/bin/../arm-none-eabi/lib/thumb\libc.a(lib_a-exit.o)
 .text          0x00000000       0x38 ../../yagarto/bin/../arm-none-eabi/lib/thumb\libc.a(lib_a-fini.o)
 .data          0x00000000        0x0 ../../yagarto/bin/../arm-none-eabi/lib/thumb\libc.a(lib_a-fini.o)
 .bss           0x00000000        0x0 ../../yagarto/bin/../arm-none-eabi/lib/thumb\libc.a(lib_a-fini.o)
 .text          0x00000000        0x0 ../../yagarto/bin/../arm-none-eabi/lib/thumb\libc.a(lib_a-impure.o)
 .bss           0x00000000        0x0 ../../yagarto/bin/../arm-none-eabi/lib/thumb\libc.a(lib_a-impure.o)
 .text          0x00000000       0x50 ../../yagarto/bin/../arm-none-eabi/lib/thumb\libc.a(lib_a-init.o)
 .data          0x00000000        0x0 ../../yagarto/bin/../arm-none-eabi/lib/thumb\libc.a(lib_a-init.o)
 .bss           0x00000000        0x0 ../../yagarto/bin/../arm-none-eabi/lib/thumb\libc.a(lib_a-init.o)
 .data          0x00000000        0x0 ../../yagarto/bin/../arm-none-eabi/lib/thumb\libc.a(lib_a-malloc.o)
 .bss           0x00000000        0x0 ../../yagarto/bin/../arm-none-eabi/lib/thumb\libc.a(lib_a-malloc.o)
 .data          0x00000000        0x0 ../../yagarto/bin/../arm-none-eabi/lib/thumb\libc.a(lib_a-memcmp.o)
 .bss           0x00000000        0x0 ../../yagarto/bin/../arm-none-eabi/lib/thumb\libc.a(lib_a-memcmp.o)
 .data          0x00000000        0x0 ../../yagarto/bin/../arm-none-eabi/lib/thumb\libc.a(lib_a-memcpy.o)
 .bss           0x00000000        0x0 ../../yagarto/bin/../arm-none-eabi/lib/thumb\libc.a(lib_a-memcpy.o)
 .data          0x00000000        0x0 ../../yagarto/bin/../arm-none-eabi/lib/thumb\libc.a(lib_a-memset.o)
 .bss           0x00000000        0x0 ../../yagarto/bin/../arm-none-eabi/lib/thumb\libc.a(lib_a-memset.o)
 .data          0x00000000        0x0 ../../yagarto/bin/../arm-none-eabi/lib/thumb\libc.a(lib_a-mlock.o)
 .bss           0x00000000        0x0 ../../yagarto/bin/../arm-none-eabi/lib/thumb\libc.a(lib_a-mlock.o)
 .data          0x00000000        0x0 ../../yagarto/bin/../arm-none-eabi/lib/thumb\libc.a(lib_a-printf.o)
 .bss           0x00000000        0x0 ../../yagarto/bin/../arm-none-eabi/lib/thumb\libc.a(lib_a-printf.o)
 .data          0x00000000        0x0 ../../yagarto/bin/../arm-none-eabi/lib/thumb\libc.a(lib_a-sbrkr.o)
 .bss           0x00000000        0x0 ../../yagarto/bin/../arm-none-eabi/lib/thumb\libc.a(lib_a-sbrkr.o)
 .data          0x00000000        0x0 ../../yagarto/bin/../arm-none-eabi/lib/thumb\libc.a(lib_a-sprintf.o)
 .bss           0x00000000        0x0 ../../yagarto/bin/../arm-none-eabi/lib/thumb\libc.a(lib_a-sprintf.o)
 .data          0x00000000        0x0 ../../yagarto/bin/../arm-none-eabi/lib/thumb\libc.a(lib_a-strlen.o)
 .bss           0x00000000        0x0 ../../yagarto/bin/../arm-none-eabi/lib/thumb\libc.a(lib_a-strlen.o)
 .data          0x00000000        0x0 ../../yagarto/bin/../arm-none-eabi/lib/thumb\libc.a(lib_a-strncmp.o)
 .bss           0x00000000        0x0 ../../yagarto/bin/../arm-none-eabi/lib/thumb\libc.a(lib_a-strncmp.o)
 .data          0x00000000        0x0 ../../yagarto/bin/../arm-none-eabi/lib/thumb\libc.a(lib_a-svfprintf.o)
 .bss           0x00000000        0x0 ../../yagarto/bin/../arm-none-eabi/lib/thumb\libc.a(lib_a-svfprintf.o)
 .data          0x00000000        0x0 ../../yagarto/bin/../arm-none-eabi/lib/thumb\libc.a(lib_a-vfprintf.o)
 .bss           0x00000000        0x0 ../../yagarto/bin/../arm-none-eabi/lib/thumb\libc.a(lib_a-vfprintf.o)
 .data          0x00000000        0x0 ../../yagarto/bin/../arm-none-eabi/lib/thumb\libc.a(lib_a-wsetup.o)
 .bss           0x00000000        0x0 ../../yagarto/bin/../arm-none-eabi/lib/thumb\libc.a(lib_a-wsetup.o)
 .text          0x00000000       0xd4 ../../yagarto/bin/../arm-none-eabi/lib/thumb\libc.a(lib_a-__atexit.o)
 .data          0x00000000        0x0 ../../yagarto/bin/../arm-none-eabi/lib/thumb\libc.a(lib_a-__atexit.o)
 .bss           0x00000000        0x0 ../../yagarto/bin/../arm-none-eabi/lib/thumb\libc.a(lib_a-__atexit.o)
 .text          0x00000000      0x114 ../../yagarto/bin/../arm-none-eabi/lib/thumb\libc.a(lib_a-__call_atexit.o)
 .data          0x00000000        0x0 ../../yagarto/bin/../arm-none-eabi/lib/thumb\libc.a(lib_a-__call_atexit.o)
 .bss           0x00000000        0x0 ../../yagarto/bin/../arm-none-eabi/lib/thumb\libc.a(lib_a-__call_atexit.o)
 .data          0x00000000        0x0 ../../yagarto/bin/../arm-none-eabi/lib/thumb\libc.a(lib_a-dtoa.o)
 .bss           0x00000000        0x0 ../../yagarto/bin/../arm-none-eabi/lib/thumb\libc.a(lib_a-dtoa.o)
 .data          0x00000000        0x0 ../../yagarto/bin/../arm-none-eabi/lib/thumb\libc.a(lib_a-fflush.o)
 .bss           0x00000000        0x0 ../../yagarto/bin/../arm-none-eabi/lib/thumb\libc.a(lib_a-fflush.o)
 .data          0x00000000        0x0 ../../yagarto/bin/../arm-none-eabi/lib/thumb\libc.a(lib_a-findfp.o)
 .bss           0x00000000        0x0 ../../yagarto/bin/../arm-none-eabi/lib/thumb\libc.a(lib_a-findfp.o)
 .data          0x00000000        0x0 ../../yagarto/bin/../arm-none-eabi/lib/thumb\libc.a(lib_a-freer.o)
 .bss           0x00000000        0x0 ../../yagarto/bin/../arm-none-eabi/lib/thumb\libc.a(lib_a-freer.o)
 .data          0x00000000        0x0 ../../yagarto/bin/../arm-none-eabi/lib/thumb\libc.a(lib_a-fwalk.o)
 .bss           0x00000000        0x0 ../../yagarto/bin/../arm-none-eabi/lib/thumb\libc.a(lib_a-fwalk.o)
 .bss           0x00000000        0xc ../../yagarto/bin/../arm-none-eabi/lib/thumb\libc.a(lib_a-locale.o)
 .data          0x00000000        0x0 ../../yagarto/bin/../arm-none-eabi/lib/thumb\libc.a(lib_a-makebuf.o)
 .bss           0x00000000        0x0 ../../yagarto/bin/../arm-none-eabi/lib/thumb\libc.a(lib_a-makebuf.o)
 .data          0x00000000        0x0 ../../yagarto/bin/../arm-none-eabi/lib/thumb\libc.a(lib_a-memchr.o)
 .bss           0x00000000        0x0 ../../yagarto/bin/../arm-none-eabi/lib/thumb\libc.a(lib_a-memchr.o)
 .data          0x00000000        0x0 ../../yagarto/bin/../arm-none-eabi/lib/thumb\libc.a(lib_a-mprec.o)
 .bss           0x00000000        0x0 ../../yagarto/bin/../arm-none-eabi/lib/thumb\libc.a(lib_a-mprec.o)
 .text          0x00000000      0x118 ../../yagarto/bin/../arm-none-eabi/lib/thumb\libc.a(lib_a-reent.o)
 .data          0x00000000        0x0 ../../yagarto/bin/../arm-none-eabi/lib/thumb\libc.a(lib_a-reent.o)
 .bss           0x00000000        0x0 ../../yagarto/bin/../arm-none-eabi/lib/thumb\libc.a(lib_a-reent.o)
 .data          0x00000000        0x0 ../../yagarto/bin/../arm-none-eabi/lib/thumb\libc.a(lib_a-s_fpclassify.o)
 .bss           0x00000000        0x0 ../../yagarto/bin/../arm-none-eabi/lib/thumb\libc.a(lib_a-s_fpclassify.o)
 .data          0x00000000        0x0 ../../yagarto/bin/../arm-none-eabi/lib/thumb\libc.a(lib_a-stdio.o)
 .bss           0x00000000        0x0 ../../yagarto/bin/../arm-none-eabi/lib/thumb\libc.a(lib_a-stdio.o)
 .data          0x00000000        0x0 ../../yagarto/bin/../arm-none-eabi/lib/thumb\libc.a(lib_a-strcmp.o)
 .bss           0x00000000        0x0 ../../yagarto/bin/../arm-none-eabi/lib/thumb\libc.a(lib_a-strcmp.o)
 .data          0x00000000        0x0 ../../yagarto/bin/../arm-none-eabi/lib/thumb\libc.a(lib_a-svfiprintf.o)
 .bss           0x00000000        0x0 ../../yagarto/bin/../arm-none-eabi/lib/thumb\libc.a(lib_a-svfiprintf.o)
 .data          0x00000000        0x0 ../../yagarto/bin/../arm-none-eabi/lib/thumb\libc.a(lib_a-vfiprintf.o)
 .bss           0x00000000        0x0 ../../yagarto/bin/../arm-none-eabi/lib/thumb\libc.a(lib_a-vfiprintf.o)
 .data          0x00000000        0x0 ../../yagarto/bin/../arm-none-eabi/lib/thumb\libc.a(lib_a-callocr.o)
 .bss           0x00000000        0x0 ../../yagarto/bin/../arm-none-eabi/lib/thumb\libc.a(lib_a-callocr.o)
 .data          0x00000000        0x0 ../../yagarto/bin/../arm-none-eabi/lib/thumb\libc.a(lib_a-fclose.o)
 .bss           0x00000000        0x0 ../../yagarto/bin/../arm-none-eabi/lib/thumb\libc.a(lib_a-fclose.o)
 .data          0x00000000        0x0 ../../yagarto/bin/../arm-none-eabi/lib/thumb\libc.a(lib_a-fputwc.o)
 .bss           0x00000000        0x0 ../../yagarto/bin/../arm-none-eabi/lib/thumb\libc.a(lib_a-fputwc.o)
 .data          0x00000000        0x0 ../../yagarto/bin/../arm-none-eabi/lib/thumb\libc.a(lib_a-fvwrite.o)
 .bss           0x00000000        0x0 ../../yagarto/bin/../arm-none-eabi/lib/thumb\libc.a(lib_a-fvwrite.o)
 .data          0x00000000        0x0 ../../yagarto/bin/../arm-none-eabi/lib/thumb\libc.a(lib_a-memmove.o)
 .bss           0x00000000        0x0 ../../yagarto/bin/../arm-none-eabi/lib/thumb\libc.a(lib_a-memmove.o)
 .data          0x00000000        0x0 ../../yagarto/bin/../arm-none-eabi/lib/thumb\libc.a(lib_a-reallocr.o)
 .bss           0x00000000        0x0 ../../yagarto/bin/../arm-none-eabi/lib/thumb\libc.a(lib_a-reallocr.o)
 .data          0x00000000        0x0 ../../yagarto/bin/../arm-none-eabi/lib/thumb\libc.a(lib_a-wbuf.o)
 .bss           0x00000000        0x0 ../../yagarto/bin/../arm-none-eabi/lib/thumb\libc.a(lib_a-wbuf.o)
 .data          0x00000000        0x0 ../../yagarto/bin/../arm-none-eabi/lib/thumb\libc.a(lib_a-wcrtomb.o)
 .bss           0x00000000        0x0 ../../yagarto/bin/../arm-none-eabi/lib/thumb\libc.a(lib_a-wcrtomb.o)
 .bss           0x00000000        0x0 ../../yagarto/bin/../arm-none-eabi/lib/thumb\libc.a(lib_a-wctomb_r.o)
 .data          0x00000000        0x0 e:/mydocument/dropbox/futuregadgetresearch/sa/eclipse_stm32/yagarto/bin/../lib/gcc/arm-none-eabi/4.6.2/thumb/v7m\libgcc.a(_udivsi3.o)
 .bss           0x00000000        0x0 e:/mydocument/dropbox/futuregadgetresearch/sa/eclipse_stm32/yagarto/bin/../lib/gcc/arm-none-eabi/4.6.2/thumb/v7m\libgcc.a(_udivsi3.o)
 .data          0x00000000        0x0 e:/mydocument/dropbox/futuregadgetresearch/sa/eclipse_stm32/yagarto/bin/../lib/gcc/arm-none-eabi/4.6.2/thumb/v7m\libgcc.a(_divsi3.o)
 .bss           0x00000000        0x0 e:/mydocument/dropbox/futuregadgetresearch/sa/eclipse_stm32/yagarto/bin/../lib/gcc/arm-none-eabi/4.6.2/thumb/v7m\libgcc.a(_divsi3.o)
 .data          0x00000000        0x0 e:/mydocument/dropbox/futuregadgetresearch/sa/eclipse_stm32/yagarto/bin/../lib/gcc/arm-none-eabi/4.6.2/thumb/v7m\libgcc.a(_dvmd_tls.o)
 .bss           0x00000000        0x0 e:/mydocument/dropbox/futuregadgetresearch/sa/eclipse_stm32/yagarto/bin/../lib/gcc/arm-none-eabi/4.6.2/thumb/v7m\libgcc.a(_dvmd_tls.o)
 .data          0x00000000        0x0 e:/mydocument/dropbox/futuregadgetresearch/sa/eclipse_stm32/yagarto/bin/../lib/gcc/arm-none-eabi/4.6.2/thumb/v7m\libgcc.a(_arm_addsubdf3.o)
 .bss           0x00000000        0x0 e:/mydocument/dropbox/futuregadgetresearch/sa/eclipse_stm32/yagarto/bin/../lib/gcc/arm-none-eabi/4.6.2/thumb/v7m\libgcc.a(_arm_addsubdf3.o)
 .data          0x00000000        0x0 e:/mydocument/dropbox/futuregadgetresearch/sa/eclipse_stm32/yagarto/bin/../lib/gcc/arm-none-eabi/4.6.2/thumb/v7m\libgcc.a(_arm_muldivdf3.o)
 .bss           0x00000000        0x0 e:/mydocument/dropbox/futuregadgetresearch/sa/eclipse_stm32/yagarto/bin/../lib/gcc/arm-none-eabi/4.6.2/thumb/v7m\libgcc.a(_arm_muldivdf3.o)
 .data          0x00000000        0x0 e:/mydocument/dropbox/futuregadgetresearch/sa/eclipse_stm32/yagarto/bin/../lib/gcc/arm-none-eabi/4.6.2/thumb/v7m\libgcc.a(_arm_cmpdf2.o)
 .bss           0x00000000        0x0 e:/mydocument/dropbox/futuregadgetresearch/sa/eclipse_stm32/yagarto/bin/../lib/gcc/arm-none-eabi/4.6.2/thumb/v7m\libgcc.a(_arm_cmpdf2.o)
 .data          0x00000000        0x0 e:/mydocument/dropbox/futuregadgetresearch/sa/eclipse_stm32/yagarto/bin/../lib/gcc/arm-none-eabi/4.6.2/thumb/v7m\libgcc.a(_arm_fixdfsi.o)
 .bss           0x00000000        0x0 e:/mydocument/dropbox/futuregadgetresearch/sa/eclipse_stm32/yagarto/bin/../lib/gcc/arm-none-eabi/4.6.2/thumb/v7m\libgcc.a(_arm_fixdfsi.o)
 .text          0x00000000        0x0 e:/mydocument/dropbox/futuregadgetresearch/sa/eclipse_stm32/yagarto/bin/../lib/gcc/arm-none-eabi/4.6.2/thumb/v7m/crtend.o
 .data          0x00000000        0x0 e:/mydocument/dropbox/futuregadgetresearch/sa/eclipse_stm32/yagarto/bin/../lib/gcc/arm-none-eabi/4.6.2/thumb/v7m/crtend.o
 .bss           0x00000000        0x0 e:/mydocument/dropbox/futuregadgetresearch/sa/eclipse_stm32/yagarto/bin/../lib/gcc/arm-none-eabi/4.6.2/thumb/v7m/crtend.o
 .eh_frame      0x00000000        0x4 e:/mydocument/dropbox/futuregadgetresearch/sa/eclipse_stm32/yagarto/bin/../lib/gcc/arm-none-eabi/4.6.2/thumb/v7m/crtend.o
 .jcr           0x00000000        0x4 e:/mydocument/dropbox/futuregadgetresearch/sa/eclipse_stm32/yagarto/bin/../lib/gcc/arm-none-eabi/4.6.2/thumb/v7m/crtend.o
 .text          0x00000000        0x0 e:/mydocument/dropbox/futuregadgetresearch/sa/eclipse_stm32/yagarto/bin/../lib/gcc/arm-none-eabi/4.6.2/thumb/v7m/crtn.o
 .data          0x00000000        0x0 e:/mydocument/dropbox/futuregadgetresearch/sa/eclipse_stm32/yagarto/bin/../lib/gcc/arm-none-eabi/4.6.2/thumb/v7m/crtn.o
 .bss           0x00000000        0x0 e:/mydocument/dropbox/futuregadgetresearch/sa/eclipse_stm32/yagarto/bin/../lib/gcc/arm-none-eabi/4.6.2/thumb/v7m/crtn.o

Memory Configuration

Name             Origin             Length             Attributes
FLASH            0x08000000         0x00100000         xr
RAM              0x20000000         0x00020000         xrw
CCMRAM           0x10000000         0x00010000         xrw
MEMORY_B1        0x60000000         0x00000000         xr
*default*        0x00000000         0xffffffff

Linker script and memory map

LOAD e:/mydocument/dropbox/futuregadgetresearch/sa/eclipse_stm32/yagarto/bin/../lib/gcc/arm-none-eabi/4.6.2/thumb/v7m/crti.o
LOAD e:/mydocument/dropbox/futuregadgetresearch/sa/eclipse_stm32/yagarto/bin/../lib/gcc/arm-none-eabi/4.6.2/thumb/v7m/crtbegin.o
LOAD e:/mydocument/dropbox/futuregadgetresearch/sa/eclipse_stm32/yagarto/bin/../lib/gcc/arm-none-eabi/4.6.2/../../../../arm-none-eabi/lib/thumb/v7m/crt0.o
LOAD ../../yagarto/bin/../arm-none-eabi/lib/thumb\libstdc++.a
LOAD src/stm32f4xx_it.o
LOAD src/syscalls.o
LOAD src/system_stm32f4xx.o
LOAD src\Stdout/HalUsart.o
LOAD src\Mpu-9250/HalI2c2.o
LOAD src\Servo/HalTim.o
LOAD src/main.o
LOAD src/tweak.o
LOAD src\Stdout/SerialCommand.o
LOAD src\Adis16488/Adis16488.o
LOAD src\Adis16488/HalSpi.o
LOAD Libraries/CMSIS/Device/ST/STM32F4xx/Source/Templates/gcc_ride7/startup_stm32f4xx.o
LOAD Libraries/libstm32f4xx.a
LOAD ../../yagarto/bin/../arm-none-eabi/lib/thumb\libstdc++.a
LOAD ../../yagarto/bin/../arm-none-eabi/lib/thumb\libm.a
START GROUP
LOAD e:/mydocument/dropbox/futuregadgetresearch/sa/eclipse_stm32/yagarto/bin/../lib/gcc/arm-none-eabi/4.6.2/thumb/v7m\libgcc.a
LOAD ../../yagarto/bin/../arm-none-eabi/lib/thumb\libc.a
END GROUP
LOAD e:/mydocument/dropbox/futuregadgetresearch/sa/eclipse_stm32/yagarto/bin/../lib/gcc/arm-none-eabi/4.6.2/thumb/v7m/crtend.o
LOAD e:/mydocument/dropbox/futuregadgetresearch/sa/eclipse_stm32/yagarto/bin/../lib/gcc/arm-none-eabi/4.6.2/thumb/v7m/crtn.o
                0x20020000                _estack = 0x20020000
                0x00000000                _Min_Heap_Size = 0x0
                0x00000400                _Min_Stack_Size = 0x400

.isr_vector     0x08000000      0x188
                0x08000000                . = ALIGN (0x4)
 *(.isr_vector)
 .isr_vector    0x08000000      0x188 Libraries/CMSIS/Device/ST/STM32F4xx/Source/Templates/gcc_ride7/startup_stm32f4xx.o
                0x08000000                g_pfnVectors
                0x08000188                . = ALIGN (0x4)

.text           0x08000188     0xc7c0
                0x08000188                . = ALIGN (0x4)
 *(.text)
 .text          0x08000188       0x54 e:/mydocument/dropbox/futuregadgetresearch/sa/eclipse_stm32/yagarto/bin/../lib/gcc/arm-none-eabi/4.6.2/thumb/v7m/crtbegin.o
 .text          0x080001dc        0xc ../../yagarto/bin/../arm-none-eabi/lib/thumb\libc.a(lib_a-errno.o)
                0x080001dc                __errno
 .text          0x080001e8       0x30 ../../yagarto/bin/../arm-none-eabi/lib/thumb\libc.a(lib_a-malloc.o)
                0x080001e8                malloc
                0x08000200                free
 .text          0x08000218      0x514 ../../yagarto/bin/../arm-none-eabi/lib/thumb\libc.a(lib_a-mallocr.o)
                0x08000218                _malloc_r
 .text          0x0800072c       0x64 ../../yagarto/bin/../arm-none-eabi/lib/thumb\libc.a(lib_a-memcmp.o)
                0x0800072c                memcmp
 .text          0x08000790       0x80 ../../yagarto/bin/../arm-none-eabi/lib/thumb\libc.a(lib_a-memcpy.o)
                0x08000790                memcpy
 .text          0x08000810       0x98 ../../yagarto/bin/../arm-none-eabi/lib/thumb\libc.a(lib_a-memset.o)
                0x08000810                memset
 .text          0x080008a8        0x8 ../../yagarto/bin/../arm-none-eabi/lib/thumb\libc.a(lib_a-mlock.o)
                0x080008a8                __malloc_lock
                0x080008ac                __malloc_unlock
 .text          0x080008b0       0x40 ../../yagarto/bin/../arm-none-eabi/lib/thumb\libc.a(lib_a-printf.o)
                0x080008b0                _printf_r
                0x080008cc                printf
 .text          0x080008f0       0x28 ../../yagarto/bin/../arm-none-eabi/lib/thumb\libc.a(lib_a-sbrkr.o)
                0x080008f0                _sbrk_r
 .text          0x08000918       0x84 ../../yagarto/bin/../arm-none-eabi/lib/thumb\libc.a(lib_a-sprintf.o)
                0x08000918                _sprintf_r
                0x08000958                sprintf
 .text          0x0800099c       0x10 ../../yagarto/bin/../arm-none-eabi/lib/thumb\libc.a(lib_a-strlen.o)
                0x0800099c                strlen
 .text          0x080009ac       0xc0 ../../yagarto/bin/../arm-none-eabi/lib/thumb\libc.a(lib_a-strncmp.o)
                0x080009ac                strncmp
 *fill*         0x08000a6c        0x4 00
 .text          0x08000a70     0x1228 ../../yagarto/bin/../arm-none-eabi/lib/thumb\libc.a(lib_a-svfprintf.o)
                0x08000a70                _svfprintf_r
 .text          0x08001c98     0x14a8 ../../yagarto/bin/../arm-none-eabi/lib/thumb\libc.a(lib_a-vfprintf.o)
                0x08001c98                _vfprintf_r
                0x08003120                vfprintf
 .text          0x08003140       0xbc ../../yagarto/bin/../arm-none-eabi/lib/thumb\libc.a(lib_a-wsetup.o)
                0x08003140                __swsetup_r
 *fill*         0x080031fc        0x4 00
 .text          0x08003200     0x1010 ../../yagarto/bin/../arm-none-eabi/lib/thumb\libc.a(lib_a-dtoa.o)
                0x0800335c                _dtoa_r
 .text          0x08004210      0x18c ../../yagarto/bin/../arm-none-eabi/lib/thumb\libc.a(lib_a-fflush.o)
                0x08004210                _fflush_r
                0x0800436c                fflush
 .text          0x0800439c      0x1ec ../../yagarto/bin/../arm-none-eabi/lib/thumb\libc.a(lib_a-findfp.o)
                0x080043a4                _cleanup_r
                0x08004404                __sfmoreglue
                0x08004434                _cleanup
                0x08004448                __sinit
                0x0800449c                __sfp
                0x08004540                __sfp_lock_acquire
                0x08004544                __sfp_lock_release
                0x08004548                __sinit_lock_acquire
                0x0800454c                __sinit_lock_release
                0x08004550                __fp_lock_all
                0x0800456c                __fp_unlock_all
 .text          0x08004588      0x248 ../../yagarto/bin/../arm-none-eabi/lib/thumb\libc.a(lib_a-freer.o)
                0x08004588                _malloc_trim_r
                0x08004634                _free_r
 .text          0x080047d0       0xc4 ../../yagarto/bin/../arm-none-eabi/lib/thumb\libc.a(lib_a-fwalk.o)
                0x080047d0                _fwalk
                0x0800482c                _fwalk_reent
 .text          0x08004894       0xa4 ../../yagarto/bin/../arm-none-eabi/lib/thumb\libc.a(lib_a-locale.o)
                0x08004894                _setlocale_r
                0x080048e0                __locale_charset
                0x080048e8                __locale_mb_cur_max
                0x080048f4                __locale_msgcharset
                0x08004900                __locale_cjk_lang
                0x08004904                _localeconv_r
                0x08004910                setlocale
                0x0800492c                localeconv
 .text          0x08004938       0xe4 ../../yagarto/bin/../arm-none-eabi/lib/thumb\libc.a(lib_a-makebuf.o)
                0x08004938                __smakebuf_r
 .text          0x08004a1c       0x94 ../../yagarto/bin/../arm-none-eabi/lib/thumb\libc.a(lib_a-memchr.o)
                0x08004a1c                memchr
 .text          0x08004ab0      0x988 ../../yagarto/bin/../arm-none-eabi/lib/thumb\libc.a(lib_a-mprec.o)
                0x08004ab0                _Balloc
                0x08004b04                _Bfree
                0x08004b1c                __multadd
                0x08004bb0                __s2b
                0x08004c44                __hi0bits
                0x08004c7c                __lo0bits
                0x08004cdc                __i2b
                0x08004cf4                __multiply
                0x08004e64                __pow5mult
                0x08004f14                __lshift
                0x08004fe4                __mcmp
                0x08005020                __mdiff
                0x0800510c                __ulp
                0x08005154                __b2d
                0x08005210                __d2b
                0x080052e0                __ratio
                0x0800534c                _mprec_log10
                0x0800538c                __copybits
                0x080053d4                __any_on
 .text          0x08005438       0x90 ../../yagarto/bin/../arm-none-eabi/lib/thumb\libc.a(lib_a-s_fpclassify.o)
                0x08005438                __fpclassifyd
 .text          0x080054c8       0xac ../../yagarto/bin/../arm-none-eabi/lib/thumb\libc.a(lib_a-stdio.o)
                0x080054c8                __sread
                0x080054f4                __seofread
                0x080054f8                __swrite
                0x08005534                __sseek
                0x08005564                __sclose
 .text          0x08005574       0x14 ../../yagarto/bin/../arm-none-eabi/lib/thumb\libc.a(lib_a-strcmp.o)
                0x08005574                strcmp
 .text          0x08005588      0xa64 ../../yagarto/bin/../arm-none-eabi/lib/thumb\libc.a(lib_a-svfiprintf.o)
                0x08005588                __ssprint_r
                0x080056b8                _svfiprintf_r
 .text          0x08005fec      0xadc ../../yagarto/bin/../arm-none-eabi/lib/thumb\libc.a(lib_a-vfiprintf.o)
                0x08005fec                __sprint_r
                0x08006070                _vfiprintf_r
                0x08006aa8                vfiprintf
 .text          0x08006ac8       0x64 ../../yagarto/bin/../arm-none-eabi/lib/thumb\libc.a(lib_a-callocr.o)
                0x08006ac8                _calloc_r
 .text          0x08006b2c       0xc0 ../../yagarto/bin/../arm-none-eabi/lib/thumb\libc.a(lib_a-fclose.o)
                0x08006b2c                _fclose_r
                0x08006bd0                fclose
 .text          0x08006bec      0x108 ../../yagarto/bin/../arm-none-eabi/lib/thumb\libc.a(lib_a-fputwc.o)
                0x08006bec                _fputwc_r
                0x08006cc8                fputwc
 .text          0x08006cf4      0x324 ../../yagarto/bin/../arm-none-eabi/lib/thumb\libc.a(lib_a-fvwrite.o)
                0x08006cf4                __sfvwrite_r
 .text          0x08007018       0xa8 ../../yagarto/bin/../arm-none-eabi/lib/thumb\libc.a(lib_a-memmove.o)
                0x08007018                memmove
 .text          0x080070c0      0x3c4 ../../yagarto/bin/../arm-none-eabi/lib/thumb\libc.a(lib_a-reallocr.o)
                0x080070c0                _realloc_r
 .text          0x08007484       0xe4 ../../yagarto/bin/../arm-none-eabi/lib/thumb\libc.a(lib_a-wbuf.o)
                0x08007484                __swbuf_r
                0x0800754c                __swbuf
 .text          0x08007568       0xcc ../../yagarto/bin/../arm-none-eabi/lib/thumb\libc.a(lib_a-wcrtomb.o)
                0x08007568                _wcrtomb_r
                0x080075c4                wcrtomb
 .text          0x08007634       0x5c ../../yagarto/bin/../arm-none-eabi/lib/thumb\libc.a(lib_a-wctomb_r.o)
                0x08007634                __ascii_wctomb
                0x08007654                _wctomb_r
 .text          0x08007690      0x278 e:/mydocument/dropbox/futuregadgetresearch/sa/eclipse_stm32/yagarto/bin/../lib/gcc/arm-none-eabi/4.6.2/thumb/v7m\libgcc.a(_udivsi3.o)
                0x08007690                __aeabi_uidiv
                0x08007690                __udivsi3
                0x080078ec                __aeabi_uidivmod
 .text          0x08007908      0x2b0 e:/mydocument/dropbox/futuregadgetresearch/sa/eclipse_stm32/yagarto/bin/../lib/gcc/arm-none-eabi/4.6.2/thumb/v7m\libgcc.a(_divsi3.o)
                0x08007908                __divsi3
                0x08007908                __aeabi_idiv
                0x08007b9c                __aeabi_idivmod
 .text          0x08007bb8        0x4 e:/mydocument/dropbox/futuregadgetresearch/sa/eclipse_stm32/yagarto/bin/../lib/gcc/arm-none-eabi/4.6.2/thumb/v7m\libgcc.a(_dvmd_tls.o)
                0x08007bb8                __aeabi_idiv0
                0x08007bb8                __aeabi_ldiv0
 .text          0x08007bbc      0x370 e:/mydocument/dropbox/futuregadgetresearch/sa/eclipse_stm32/yagarto/bin/../lib/gcc/arm-none-eabi/4.6.2/thumb/v7m\libgcc.a(_arm_addsubdf3.o)
                0x08007bbc                __aeabi_drsub
                0x08007bc4                __aeabi_dsub
                0x08007bc4                __subdf3
                0x08007bc8                __aeabi_dadd
                0x08007bc8                __adddf3
                0x08007e40                __floatunsidf
                0x08007e40                __aeabi_ui2d
                0x08007e60                __floatsidf
                0x08007e60                __aeabi_i2d
                0x08007e84                __aeabi_f2d
                0x08007e84                __extendsfdf2
                0x08007ec0                __floatundidf
                0x08007ec0                __aeabi_ul2d
                0x08007ed0                __floatdidf
                0x08007ed0                __aeabi_l2d
 .text          0x08007f2c      0x424 e:/mydocument/dropbox/futuregadgetresearch/sa/eclipse_stm32/yagarto/bin/../lib/gcc/arm-none-eabi/4.6.2/thumb/v7m\libgcc.a(_arm_muldivdf3.o)
                0x08007f2c                __aeabi_dmul
                0x08007f2c                __muldf3
                0x08008180                __divdf3
                0x08008180                __aeabi_ddiv
 .text          0x08008350      0x110 e:/mydocument/dropbox/futuregadgetresearch/sa/eclipse_stm32/yagarto/bin/../lib/gcc/arm-none-eabi/4.6.2/thumb/v7m\libgcc.a(_arm_cmpdf2.o)
                0x08008350                __gtdf2
                0x08008350                __gedf2
                0x08008358                __ltdf2
                0x08008358                __ledf2
                0x08008360                __nedf2
                0x08008360                __eqdf2
                0x08008360                __cmpdf2
                0x080083dc                __aeabi_cdrcmple
                0x080083ec                __aeabi_cdcmpeq
                0x080083ec                __aeabi_cdcmple
                0x080083fc                __aeabi_dcmpeq
                0x08008410                __aeabi_dcmplt
                0x08008424                __aeabi_dcmple
                0x08008438                __aeabi_dcmpge
                0x0800844c                __aeabi_dcmpgt
 .text          0x08008460       0x50 e:/mydocument/dropbox/futuregadgetresearch/sa/eclipse_stm32/yagarto/bin/../lib/gcc/arm-none-eabi/4.6.2/thumb/v7m\libgcc.a(_arm_fixdfsi.o)
                0x08008460                __aeabi_d2iz
                0x08008460                __fixdfsi
 *(.text*)
 .text.NMI_Handler
                0x080084b0       0x24 src/stm32f4xx_it.o
                0x080084b0                NMI_Handler
 .text.HardFault_Handler
                0x080084d4        0x4 src/stm32f4xx_it.o
                0x080084d4                HardFault_Handler
 .text.MemManage_Handler
                0x080084d8        0x4 src/stm32f4xx_it.o
                0x080084d8                MemManage_Handler
 .text.BusFault_Handler
                0x080084dc        0x4 src/stm32f4xx_it.o
                0x080084dc                BusFault_Handler
 .text.UsageFault_Handler
                0x080084e0        0x4 src/stm32f4xx_it.o
                0x080084e0                UsageFault_Handler
 .text.SVC_Handler
                0x080084e4        0x4 src/stm32f4xx_it.o
                0x080084e4                SVC_Handler
 .text.DebugMon_Handler
                0x080084e8        0x4 src/stm32f4xx_it.o
                0x080084e8                DebugMon_Handler
 .text.PendSV_Handler
                0x080084ec        0x4 src/stm32f4xx_it.o
                0x080084ec                PendSV_Handler
 .text.SysTick_Handler
                0x080084f0        0x4 src/stm32f4xx_it.o
                0x080084f0                SysTick_Handler
 .text.RCC_IRQHandler
                0x080084f4       0x48 src/stm32f4xx_it.o
                0x080084f4                RCC_IRQHandler
 .text.WWDG_IRQHandler
                0x0800853c        0x4 src/stm32f4xx_it.o
                0x0800853c                WWDG_IRQHandler
 .text.PVD_IRQHandler
                0x08008540        0x4 src/stm32f4xx_it.o
                0x08008540                PVD_IRQHandler
 .text.TAMP_STAMP_IRQHandler
                0x08008544        0x4 src/stm32f4xx_it.o
                0x08008544                TAMP_STAMP_IRQHandler
 .text.RTC_WKUP_IRQHandler
                0x08008548        0x4 src/stm32f4xx_it.o
                0x08008548                RTC_WKUP_IRQHandler
 .text.FLASH_IRQHandler
                0x0800854c        0x4 src/stm32f4xx_it.o
                0x0800854c                FLASH_IRQHandler
 .text.EXTI0_IRQHandler
                0x08008550       0x18 src/stm32f4xx_it.o
                0x08008550                EXTI0_IRQHandler
 .text.EXTI1_IRQHandler
                0x08008568        0x4 src/stm32f4xx_it.o
                0x08008568                EXTI1_IRQHandler
 .text.EXTI2_IRQHandler
                0x0800856c        0x4 src/stm32f4xx_it.o
                0x0800856c                EXTI2_IRQHandler
 .text.EXTI3_IRQHandler
                0x08008570        0x4 src/stm32f4xx_it.o
                0x08008570                EXTI3_IRQHandler
 .text.EXTI4_IRQHandler
                0x08008574        0x4 src/stm32f4xx_it.o
                0x08008574                EXTI4_IRQHandler
 .text.DMA1_Stream0_IRQHandler
                0x08008578        0x4 src/stm32f4xx_it.o
                0x08008578                DMA1_Stream0_IRQHandler
 .text.DMA1_Stream1_IRQHandler
                0x0800857c        0x4 src/stm32f4xx_it.o
                0x0800857c                DMA1_Stream1_IRQHandler
 .text.DMA1_Stream2_IRQHandler
                0x08008580        0x4 src/stm32f4xx_it.o
                0x08008580                DMA1_Stream2_IRQHandler
 .text.DMA1_Stream3_IRQHandler
                0x08008584        0x4 src/stm32f4xx_it.o
                0x08008584                DMA1_Stream3_IRQHandler
 .text.DMA1_Stream4_IRQHandler
                0x08008588        0x4 src/stm32f4xx_it.o
                0x08008588                DMA1_Stream4_IRQHandler
 .text.DMA1_Stream5_IRQHandler
                0x0800858c        0x4 src/stm32f4xx_it.o
                0x0800858c                DMA1_Stream5_IRQHandler
 .text.DMA1_Stream6_IRQHandler
                0x08008590        0x4 src/stm32f4xx_it.o
                0x08008590                DMA1_Stream6_IRQHandler
 .text.DMA1_Stream7_IRQHandler
                0x08008594        0x4 src/stm32f4xx_it.o
                0x08008594                DMA1_Stream7_IRQHandler
 .text.ADC_IRQHandler
                0x08008598        0x4 src/stm32f4xx_it.o
                0x08008598                ADC_IRQHandler
 .text.CAN1_TX_IRQHandler
                0x0800859c        0x4 src/stm32f4xx_it.o
                0x0800859c                CAN1_TX_IRQHandler
 .text.CAN1_RX0_IRQHandler
                0x080085a0        0x4 src/stm32f4xx_it.o
                0x080085a0                CAN1_RX0_IRQHandler
 .text.CAN1_RX1_IRQHandler
                0x080085a4        0x4 src/stm32f4xx_it.o
                0x080085a4                CAN1_RX1_IRQHandler
 .text.CAN1_SCE_IRQHandler
                0x080085a8        0x4 src/stm32f4xx_it.o
                0x080085a8                CAN1_SCE_IRQHandler
 .text.EXTI9_5_IRQHandler
                0x080085ac        0x4 src/stm32f4xx_it.o
                0x080085ac                EXTI9_5_IRQHandler
 .text.TIM1_BRK_TIM9_IRQHandler
                0x080085b0        0x4 src/stm32f4xx_it.o
                0x080085b0                TIM1_BRK_TIM9_IRQHandler
 .text.TIM1_UP_TIM10_IRQHandler
                0x080085b4        0x4 src/stm32f4xx_it.o
                0x080085b4                TIM1_UP_TIM10_IRQHandler
 .text.TIM1_TRG_COM_TIM11_IRQHandler
                0x080085b8        0x4 src/stm32f4xx_it.o
                0x080085b8                TIM1_TRG_COM_TIM11_IRQHandler
 .text.TIM1_CC_IRQHandler
                0x080085bc        0x4 src/stm32f4xx_it.o
                0x080085bc                TIM1_CC_IRQHandler
 .text.TIM2_IRQHandler
                0x080085c0        0x4 src/stm32f4xx_it.o
                0x080085c0                TIM2_IRQHandler
 .text.TIM3_IRQHandler
                0x080085c4        0x4 src/stm32f4xx_it.o
                0x080085c4                TIM3_IRQHandler
 .text.TIM4_IRQHandler
                0x080085c8        0x4 src/stm32f4xx_it.o
                0x080085c8                TIM4_IRQHandler
 .text.I2C1_EV_IRQHandler
                0x080085cc        0x4 src/stm32f4xx_it.o
                0x080085cc                I2C1_EV_IRQHandler
 .text.I2C1_ER_IRQHandler
                0x080085d0        0x4 src/stm32f4xx_it.o
                0x080085d0                I2C1_ER_IRQHandler
 .text.I2C2_EV_IRQHandler
                0x080085d4        0x4 src/stm32f4xx_it.o
                0x080085d4                I2C2_EV_IRQHandler
 .text.I2C2_ER_IRQHandler
                0x080085d8        0x4 src/stm32f4xx_it.o
                0x080085d8                I2C2_ER_IRQHandler
 .text.SPI1_IRQHandler
                0x080085dc        0x4 src/stm32f4xx_it.o
                0x080085dc                SPI1_IRQHandler
 .text.SPI2_IRQHandler
                0x080085e0        0x4 src/stm32f4xx_it.o
                0x080085e0                SPI2_IRQHandler
 .text.USART1_IRQHandler
                0x080085e4        0x4 src/stm32f4xx_it.o
                0x080085e4                USART1_IRQHandler
 .text.USART2_IRQHandler
                0x080085e8        0x4 src/stm32f4xx_it.o
                0x080085e8                USART2_IRQHandler
 .text.USART3_IRQHandler
                0x080085ec        0x4 src/stm32f4xx_it.o
                0x080085ec                USART3_IRQHandler
 .text.EXTI15_10_IRQHandler
                0x080085f0        0x4 src/stm32f4xx_it.o
                0x080085f0                EXTI15_10_IRQHandler
 .text.RTC_Alarm_IRQHandler
                0x080085f4        0x4 src/stm32f4xx_it.o
                0x080085f4                RTC_Alarm_IRQHandler
 .text.OTG_FS_WKUP_IRQHandler
                0x080085f8        0x4 src/stm32f4xx_it.o
                0x080085f8                OTG_FS_WKUP_IRQHandler
 .text.TIM8_BRK_TIM12_IRQHandler
                0x080085fc        0x4 src/stm32f4xx_it.o
                0x080085fc                TIM8_BRK_TIM12_IRQHandler
 .text.TIM8_UP_TIM13_IRQHandler
                0x08008600        0x4 src/stm32f4xx_it.o
                0x08008600                TIM8_UP_TIM13_IRQHandler
 .text.TIM8_TRG_COM_TIM14_IRQHandler
                0x08008604        0x4 src/stm32f4xx_it.o
                0x08008604                TIM8_TRG_COM_TIM14_IRQHandler
 .text.TIM8_CC_IRQHandler
                0x08008608        0x4 src/stm32f4xx_it.o
                0x08008608                TIM8_CC_IRQHandler
 .text.FSMC_IRQHandler
                0x0800860c        0x4 src/stm32f4xx_it.o
                0x0800860c                FSMC_IRQHandler
 .text.SDIO_IRQHandler
                0x08008610        0x4 src/stm32f4xx_it.o
                0x08008610                SDIO_IRQHandler
 .text.TIM5_IRQHandler
                0x08008614        0x4 src/stm32f4xx_it.o
                0x08008614                TIM5_IRQHandler
 .text.SPI3_IRQHandler
                0x08008618        0x4 src/stm32f4xx_it.o
                0x08008618                SPI3_IRQHandler
 .text.UART4_IRQHandler
                0x0800861c        0x4 src/stm32f4xx_it.o
                0x0800861c                UART4_IRQHandler
 .text.UART5_IRQHandler
                0x08008620        0x4 src/stm32f4xx_it.o
                0x08008620                UART5_IRQHandler
 .text.TIM6_DAC_IRQHandler
                0x08008624        0x4 src/stm32f4xx_it.o
                0x08008624                TIM6_DAC_IRQHandler
 .text.TIM7_IRQHandler
                0x08008628        0x4 src/stm32f4xx_it.o
                0x08008628                TIM7_IRQHandler
 .text.DMA2_Stream0_IRQHandler
                0x0800862c        0x4 src/stm32f4xx_it.o
                0x0800862c                DMA2_Stream0_IRQHandler
 .text.DMA2_Stream1_IRQHandler
                0x08008630        0x4 src/stm32f4xx_it.o
                0x08008630                DMA2_Stream1_IRQHandler
 .text.DMA2_Stream2_IRQHandler
                0x08008634        0x4 src/stm32f4xx_it.o
                0x08008634                DMA2_Stream2_IRQHandler
 .text.DMA2_Stream3_IRQHandler
                0x08008638        0x4 src/stm32f4xx_it.o
                0x08008638                DMA2_Stream3_IRQHandler
 .text.DMA2_Stream4_IRQHandler
                0x0800863c        0x4 src/stm32f4xx_it.o
                0x0800863c                DMA2_Stream4_IRQHandler
 .text.ETH_IRQHandler
                0x08008640        0x4 src/stm32f4xx_it.o
                0x08008640                ETH_IRQHandler
 .text.ETH_WKUP_IRQHandler
                0x08008644        0x4 src/stm32f4xx_it.o
                0x08008644                ETH_WKUP_IRQHandler
 .text.CAN2_TX_IRQHandler
                0x08008648        0x4 src/stm32f4xx_it.o
                0x08008648                CAN2_TX_IRQHandler
 .text.CAN2_RX0_IRQHandler
                0x0800864c        0x4 src/stm32f4xx_it.o
                0x0800864c                CAN2_RX0_IRQHandler
 .text.CAN2_RX1_IRQHandler
                0x08008650        0x4 src/stm32f4xx_it.o
                0x08008650                CAN2_RX1_IRQHandler
 .text.CAN2_SCE_IRQHandler
                0x08008654        0x4 src/stm32f4xx_it.o
                0x08008654                CAN2_SCE_IRQHandler
 .text.OTG_FS_IRQHandler
                0x08008658        0x4 src/stm32f4xx_it.o
                0x08008658                OTG_FS_IRQHandler
 .text.DMA2_Stream5_IRQHandler
                0x0800865c        0x4 src/stm32f4xx_it.o
                0x0800865c                DMA2_Stream5_IRQHandler
 .text.DMA2_Stream6_IRQHandler
                0x08008660        0x4 src/stm32f4xx_it.o
                0x08008660                DMA2_Stream6_IRQHandler
 .text.DMA2_Stream7_IRQHandler
                0x08008664        0x4 src/stm32f4xx_it.o
                0x08008664                DMA2_Stream7_IRQHandler
 .text.USART6_IRQHandler
                0x08008668        0x4 src/stm32f4xx_it.o
                0x08008668                USART6_IRQHandler
 .text.I2C3_EV_IRQHandler
                0x0800866c        0x4 src/stm32f4xx_it.o
                0x0800866c                I2C3_EV_IRQHandler
 .text.I2C3_ER_IRQHandler
                0x08008670        0x4 src/stm32f4xx_it.o
                0x08008670                I2C3_ER_IRQHandler
 .text.OTG_HS_EP1_OUT_IRQHandler
                0x08008674        0x4 src/stm32f4xx_it.o
                0x08008674                OTG_HS_EP1_OUT_IRQHandler
 .text.OTG_HS_EP1_IN_IRQHandler
                0x08008678        0x4 src/stm32f4xx_it.o
                0x08008678                OTG_HS_EP1_IN_IRQHandler
 .text.OTG_HS_WKUP_IRQHandler
                0x0800867c        0x4 src/stm32f4xx_it.o
                0x0800867c                OTG_HS_WKUP_IRQHandler
 .text.OTG_HS_IRQHandler
                0x08008680        0x4 src/stm32f4xx_it.o
                0x08008680                OTG_HS_IRQHandler
 .text.DCMI_IRQHandler
                0x08008684        0x4 src/stm32f4xx_it.o
                0x08008684                DCMI_IRQHandler
 .text.CRYP_IRQHandler
                0x08008688        0x4 src/stm32f4xx_it.o
                0x08008688                CRYP_IRQHandler
 .text.HASH_RNG_IRQHandler
                0x0800868c        0x4 src/stm32f4xx_it.o
                0x0800868c                HASH_RNG_IRQHandler
 .text.FPU_IRQHandler
                0x08008690        0x4 src/stm32f4xx_it.o
                0x08008690                FPU_IRQHandler
 .text._read_r  0x08008694       0x10 src/syscalls.o
                0x08008694                _read_r
 .text._lseek_r
                0x080086a4        0x4 src/syscalls.o
                0x080086a4                _lseek_r
 .text._write_r
                0x080086a8       0x2c src/syscalls.o
                0x080086a8                _write_r
 .text._close_r
                0x080086d4        0x4 src/syscalls.o
                0x080086d4                _close_r
 .text._fstat_r
                0x080086d8       0x18 src/syscalls.o
                0x080086d8                _fstat_r
 .text._isatty_r
                0x080086f0        0x4 src/syscalls.o
                0x080086f0                _isatty_r
 .text.SystemInit
                0x080086f4      0x128 src/system_stm32f4xx.o
                0x080086f4                SystemInit
 .text._Z8initUartP13USART_TypeDef
                0x0800881c      0x1bc src\Stdout/HalUsart.o
                0x0800881c                initUart(USART_TypeDef*)
 .text._Z9prvTxTaskPv
                0x080089d8       0xac src\Stdout/HalUsart.o
                0x080089d8                prvTxTask(void*)
 .text._Z5uputcP13USART_TypeDefc
                0x08008a84       0x34 src\Stdout/HalUsart.o
                0x08008a84                uputc(USART_TypeDef*, char)
 .text._Z9prvRxTaskPv
                0x08008ab8       0x78 src\Stdout/HalUsart.o
                0x08008ab8                prvRxTask(void*)
 .text._Z8initI2c2v
                0x08008b30      0x21c src\Mpu-9250/HalI2c2.o
                0x08008b30                initI2c2()
 .text._Z9i2c2WriteccPci
                0x08008d4c       0x98 src\Mpu-9250/HalI2c2.o
                0x08008d4c                i2c2Write(char, char, char*, int)
 .text._Z10i2c2Write1ccc
                0x08008de4       0x18 src\Mpu-9250/HalI2c2.o
                0x08008de4                i2c2Write1(char, char, char)
 .text._Z8i2c2ReadccPci
                0x08008dfc      0x11c src\Mpu-9250/HalI2c2.o
                0x08008dfc                i2c2Read(char, char, char*, int)
 .text._Z15prvI2C2SendTaskPv
                0x08008f18      0x194 src\Mpu-9250/HalI2c2.o
                0x08008f18                prvI2C2SendTask(void*)
 .text._Z19myI2C2_EV_IRQ_Writev
                0x080090ac       0xc4 src\Mpu-9250/HalI2c2.o
                0x080090ac                myI2C2_EV_IRQ_Write()
 .text._Z19myI2C2_EV_IRQ_ReadNv
                0x08009170       0xd4 src\Mpu-9250/HalI2c2.o
                0x08009170                myI2C2_EV_IRQ_ReadN()
 .text._Z19myI2C2_EV_IRQ_Read1v
                0x08009244       0xf8 src\Mpu-9250/HalI2c2.o
                0x08009244                myI2C2_EV_IRQ_Read1()
 .text._Z20myI2C2_EV_IRQHandlerv
                0x0800933c       0x7c src\Mpu-9250/HalI2c2.o
                0x0800933c                myI2C2_EV_IRQHandler()
 .text._Z20myI2C2_ER_IRQHandlerv
                0x080093b8      0x1bc src\Mpu-9250/HalI2c2.o
                0x080093b8                myI2C2_ER_IRQHandler()
 .text._Z25myDMA1_Stream2_IRQHandlerv
                0x08009574       0x5c src\Mpu-9250/HalI2c2.o
                0x08009574                myDMA1_Stream2_IRQHandler()
 .text._Z25myDMA1_Stream7_IRQHandlerv
                0x080095d0       0x34 src\Mpu-9250/HalI2c2.o
                0x080095d0                myDMA1_Stream7_IRQHandler()
 .text._Z7initTimv
                0x08009604       0xa8 src\Servo/HalTim.o
                0x08009604                initTim()
 .text._Z8prvTaskBPv
                0x080096ac       0x38 src/main.o
                0x080096ac                prvTaskB(void*)
 .text._Z8prvTaskAPv
                0x080096e4       0x3c src/main.o
                0x080096e4                prvTaskA(void*)
 .text._Z20vApplicationIdleHookv
                0x08009720       0x10 src/main.o
                0x08009720                vApplicationIdleHook()
 .text._Z28vApplicationMallocFailedHookv
                0x08009730        0x4 src/main.o
                0x08009730                vApplicationMallocFailedHook()
 .text._Z29vApplicationStackOverflowHookPvPa
                0x08009734        0x4 src/main.o
                0x08009734                vApplicationStackOverflowHook(void*, signed char*)
 .text._Z20vApplicationTickHookv
                0x08009738        0x4 src/main.o
                0x08009738                vApplicationTickHook()
 .text._Z18GPIO_Configurationv
                0x0800973c       0x38 src/main.o
                0x0800973c                GPIO_Configuration()
 .text.startup.main
                0x08009774       0xec src/main.o
                0x08009774                main
 .text._sbrk    0x08009860       0x20 src/tweak.o
                0x08009860                _sbrk
 .text._Z19handleSerialCommandPc
                0x08009880       0x40 src\Stdout/SerialCommand.o
                0x08009880                handleSerialCommand(char*)
 .text._Z7initSpiv
                0x080098c0      0x2ac src\Adis16488/HalSpi.o
                0x080098c0                initSpi()
 .text._Z16prvAdis16488TaskPv
                0x08009b6c       0x90 src\Adis16488/HalSpi.o
                0x08009b6c                prvAdis16488Task(void*)
 .text.Reset_Handler
                0x08009bfc       0x44 Libraries/CMSIS/Device/ST/STM32F4xx/Source/Templates/gcc_ride7/startup_stm32f4xx.o
                0x08009bfc                Reset_Handler
 .text.NVIC_Init
                0x08009c40       0x84 Libraries/libstm32f4xx.a(misc.o)
                0x08009c40                NVIC_Init
 .text.DMA_Init
                0x08009cc4       0x94 Libraries/libstm32f4xx.a(stm32f4xx_dma.o)
                0x08009cc4                DMA_Init
 .text.DMA_StructInit
                0x08009d58       0x24 Libraries/libstm32f4xx.a(stm32f4xx_dma.o)
                0x08009d58                DMA_StructInit
 .text.DMA_Cmd  0x08009d7c       0x14 Libraries/libstm32f4xx.a(stm32f4xx_dma.o)
                0x08009d7c                DMA_Cmd
 .text.DMA_SetCurrDataCounter
                0x08009d90        0x4 Libraries/libstm32f4xx.a(stm32f4xx_dma.o)
                0x08009d90                DMA_SetCurrDataCounter
 .text.DMA_GetCmdStatus
                0x08009d94        0x8 Libraries/libstm32f4xx.a(stm32f4xx_dma.o)
                0x08009d94                DMA_GetCmdStatus
 .text.DMA_ClearFlag
                0x08009d9c       0x44 Libraries/libstm32f4xx.a(stm32f4xx_dma.o)
                0x08009d9c                DMA_ClearFlag
 .text.DMA_ITConfig
                0x08009de0       0x30 Libraries/libstm32f4xx.a(stm32f4xx_dma.o)
                0x08009de0                DMA_ITConfig
 .text.DMA_GetITStatus
                0x08009e10       0x68 Libraries/libstm32f4xx.a(stm32f4xx_dma.o)
                0x08009e10                DMA_GetITStatus
 .text.DMA_ClearITPendingBit
                0x08009e78       0x44 Libraries/libstm32f4xx.a(stm32f4xx_dma.o)
                0x08009e78                DMA_ClearITPendingBit
 .text.EXTI_Init
                0x08009ebc       0x7c Libraries/libstm32f4xx.a(stm32f4xx_exti.o)
                0x08009ebc                EXTI_Init
 .text.EXTI_StructInit
                0x08009f38       0x10 Libraries/libstm32f4xx.a(stm32f4xx_exti.o)
                0x08009f38                EXTI_StructInit
 .text.EXTI_GetITStatus
                0x08009f48       0x20 Libraries/libstm32f4xx.a(stm32f4xx_exti.o)
                0x08009f48                EXTI_GetITStatus
 .text.EXTI_ClearITPendingBit
                0x08009f68        0xc Libraries/libstm32f4xx.a(stm32f4xx_exti.o)
                0x08009f68                EXTI_ClearITPendingBit
 .text.GPIO_Init
                0x08009f74       0xbc Libraries/libstm32f4xx.a(stm32f4xx_gpio.o)
                0x08009f74                GPIO_Init
 .text.GPIO_StructInit
                0x0800a030       0x14 Libraries/libstm32f4xx.a(stm32f4xx_gpio.o)
                0x0800a030                GPIO_StructInit
 .text.GPIO_Write
                0x0800a044        0x4 Libraries/libstm32f4xx.a(stm32f4xx_gpio.o)
                0x0800a044                GPIO_Write
 .text.GPIO_PinAFConfig
                0x0800a048       0x30 Libraries/libstm32f4xx.a(stm32f4xx_gpio.o)
                0x0800a048                GPIO_PinAFConfig
 .text.I2C_Init
                0x0800a078       0xe4 Libraries/libstm32f4xx.a(stm32f4xx_i2c.o)
                0x0800a078                I2C_Init
 .text.I2C_StructInit
                0x0800a15c       0x1c Libraries/libstm32f4xx.a(stm32f4xx_i2c.o)
                0x0800a15c                I2C_StructInit
 .text.I2C_Cmd  0x0800a178       0x1c Libraries/libstm32f4xx.a(stm32f4xx_i2c.o)
                0x0800a178                I2C_Cmd
 .text.I2C_GenerateSTART
                0x0800a194       0x1c Libraries/libstm32f4xx.a(stm32f4xx_i2c.o)
                0x0800a194                I2C_GenerateSTART
 .text.I2C_GenerateSTOP
                0x0800a1b0       0x1c Libraries/libstm32f4xx.a(stm32f4xx_i2c.o)
                0x0800a1b0                I2C_GenerateSTOP
 .text.I2C_Send7bitAddress
                0x0800a1cc       0x14 Libraries/libstm32f4xx.a(stm32f4xx_i2c.o)
                0x0800a1cc                I2C_Send7bitAddress
 .text.I2C_AcknowledgeConfig
                0x0800a1e0       0x1c Libraries/libstm32f4xx.a(stm32f4xx_i2c.o)
                0x0800a1e0                I2C_AcknowledgeConfig
 .text.I2C_DMACmd
                0x0800a1fc       0x1c Libraries/libstm32f4xx.a(stm32f4xx_i2c.o)
                0x0800a1fc                I2C_DMACmd
 .text.I2C_DMALastTransferCmd
                0x0800a218       0x1c Libraries/libstm32f4xx.a(stm32f4xx_i2c.o)
                0x0800a218                I2C_DMALastTransferCmd
 .text.I2C_ReadRegister
                0x0800a234       0x18 Libraries/libstm32f4xx.a(stm32f4xx_i2c.o)
                0x0800a234                I2C_ReadRegister
 .text.I2C_ITConfig
                0x0800a24c       0x14 Libraries/libstm32f4xx.a(stm32f4xx_i2c.o)
                0x0800a24c                I2C_ITConfig
 .text.I2C_GetITStatus
                0x0800a260       0x1c Libraries/libstm32f4xx.a(stm32f4xx_i2c.o)
                0x0800a260                I2C_GetITStatus
 .text.I2C_ClearITPendingBit
                0x0800a27c        0x8 Libraries/libstm32f4xx.a(stm32f4xx_i2c.o)
                0x0800a27c                I2C_ClearITPendingBit
 .text.RCC_HSEConfig
                0x0800a284       0x10 Libraries/libstm32f4xx.a(stm32f4xx_rcc.o)
                0x0800a284                RCC_HSEConfig
 .text.RCC_PLLCmd
                0x0800a294        0xc Libraries/libstm32f4xx.a(stm32f4xx_rcc.o)
                0x0800a294                RCC_PLLCmd
 .text.RCC_SYSCLKConfig
                0x0800a2a0       0x14 Libraries/libstm32f4xx.a(stm32f4xx_rcc.o)
                0x0800a2a0                RCC_SYSCLKConfig
 .text.RCC_GetClocksFreq
                0x0800a2b4       0xac Libraries/libstm32f4xx.a(stm32f4xx_rcc.o)
                0x0800a2b4                RCC_GetClocksFreq
 .text.RCC_AHB1PeriphClockCmd
                0x0800a360       0x1c Libraries/libstm32f4xx.a(stm32f4xx_rcc.o)
                0x0800a360                RCC_AHB1PeriphClockCmd
 .text.RCC_APB1PeriphClockCmd
                0x0800a37c       0x1c Libraries/libstm32f4xx.a(stm32f4xx_rcc.o)
                0x0800a37c                RCC_APB1PeriphClockCmd
 .text.RCC_APB2PeriphClockCmd
                0x0800a398       0x1c Libraries/libstm32f4xx.a(stm32f4xx_rcc.o)
                0x0800a398                RCC_APB2PeriphClockCmd
 .text.RCC_ITConfig
                0x0800a3b4       0x1c Libraries/libstm32f4xx.a(stm32f4xx_rcc.o)
                0x0800a3b4                RCC_ITConfig
 .text.RCC_GetFlagStatus
                0x0800a3d0       0x3c Libraries/libstm32f4xx.a(stm32f4xx_rcc.o)
                0x0800a3d0                RCC_GetFlagStatus
 .text.RCC_GetITStatus
                0x0800a40c       0x14 Libraries/libstm32f4xx.a(stm32f4xx_rcc.o)
                0x0800a40c                RCC_GetITStatus
 .text.RCC_ClearITPendingBit
                0x0800a420        0xc Libraries/libstm32f4xx.a(stm32f4xx_rcc.o)
                0x0800a420                RCC_ClearITPendingBit
 .text.SPI_Init
                0x0800a42c       0x54 Libraries/libstm32f4xx.a(stm32f4xx_spi.o)
                0x0800a42c                SPI_Init
 .text.SPI_Cmd  0x0800a480       0x1c Libraries/libstm32f4xx.a(stm32f4xx_spi.o)
                0x0800a480                SPI_Cmd
 .text.SPI_SSOutputCmd
                0x0800a49c       0x1c Libraries/libstm32f4xx.a(stm32f4xx_spi.o)
                0x0800a49c                SPI_SSOutputCmd
 .text.SPI_I2S_DMACmd
                0x0800a4b8       0x14 Libraries/libstm32f4xx.a(stm32f4xx_spi.o)
                0x0800a4b8                SPI_I2S_DMACmd
 .text.TIM_TimeBaseInit
                0x0800a4cc       0xcc Libraries/libstm32f4xx.a(stm32f4xx_tim.o)
                0x0800a4cc                TIM_TimeBaseInit
 .text.TIM_TimeBaseStructInit
                0x0800a598       0x14 Libraries/libstm32f4xx.a(stm32f4xx_tim.o)
                0x0800a598                TIM_TimeBaseStructInit
 .text.TIM_Cmd  0x0800a5ac       0x1c Libraries/libstm32f4xx.a(stm32f4xx_tim.o)
                0x0800a5ac                TIM_Cmd
 .text.TIM_OC2Init
                0x0800a5c8       0xa8 Libraries/libstm32f4xx.a(stm32f4xx_tim.o)
                0x0800a5c8                TIM_OC2Init
 .text.TIM_OCStructInit
                0x0800a670       0x14 Libraries/libstm32f4xx.a(stm32f4xx_tim.o)
                0x0800a670                TIM_OCStructInit
 .text.USART_Init
                0x0800a684       0xf0 Libraries/libstm32f4xx.a(stm32f4xx_usart.o)
                0x0800a684                USART_Init
 .text.USART_StructInit
                0x0800a774       0x18 Libraries/libstm32f4xx.a(stm32f4xx_usart.o)
                0x0800a774                USART_StructInit
 .text.USART_Cmd
                0x0800a78c       0x1c Libraries/libstm32f4xx.a(stm32f4xx_usart.o)
                0x0800a78c                USART_Cmd
 .text.USART_DMACmd
                0x0800a7a8       0x14 Libraries/libstm32f4xx.a(stm32f4xx_usart.o)
                0x0800a7a8                USART_DMACmd
 .text.USART_ClearFlag
                0x0800a7bc        0x8 Libraries/libstm32f4xx.a(stm32f4xx_usart.o)
                0x0800a7bc                USART_ClearFlag
 .text._ZL14prvUnlockQueueP15QueueDefinition
                0x0800a7c4       0x98 Libraries/libstm32f4xx.a(queue.o)
 .text._ZL20prvCopyDataFromQueueP15QueueDefinitionPv
                0x0800a85c       0x28 Libraries/libstm32f4xx.a(queue.o)
 .text._ZL18prvCopyDataToQueueP15QueueDefinitionPKvl
                0x0800a884       0x78 Libraries/libstm32f4xx.a(queue.o)
 .text.xQueueGenericReset
                0x0800a8fc       0x74 Libraries/libstm32f4xx.a(queue.o)
                0x0800a8fc                xQueueGenericReset
 .text.xQueueGenericCreate
                0x0800a970       0x44 Libraries/libstm32f4xx.a(queue.o)
                0x0800a970                xQueueGenericCreate
 .text.xQueueGenericSend
                0x0800a9b4      0x11c Libraries/libstm32f4xx.a(queue.o)
                0x0800a9b4                xQueueGenericSend
 .text.xQueueGenericSendFromISR
                0x0800aad0       0xb4 Libraries/libstm32f4xx.a(queue.o)
                0x0800aad0                xQueueGenericSendFromISR
 .text.xQueueGenericReceive
                0x0800ab84      0x15c Libraries/libstm32f4xx.a(queue.o)
                0x0800ab84                xQueueGenericReceive
 .text.uxQueueMessagesWaiting
                0x0800ace0       0x1c Libraries/libstm32f4xx.a(queue.o)
                0x0800ace0                uxQueueMessagesWaiting
 .text.vQueueWaitForMessageRestricted
                0x0800acfc       0x40 Libraries/libstm32f4xx.a(queue.o)
                0x0800acfc                vQueueWaitForMessageRestricted
 .text._ZL27prvListTaskWithinSingleListP12xTASK_STATUSP5xLIST10eTaskState.part.0
                0x0800ad3c       0x88 Libraries/libstm32f4xx.a(tasks.o)
 .text._ZL30prvAddCurrentTaskToDelayedListm
                0x0800adc4       0x50 Libraries/libstm32f4xx.a(tasks.o)
 .text.xTaskGenericCreate
                0x0800ae14      0x1e4 Libraries/libstm32f4xx.a(tasks.o)
                0x0800ae14                xTaskGenericCreate
 .text.vTaskStartScheduler
                0x0800aff8       0x5c Libraries/libstm32f4xx.a(tasks.o)
                0x0800aff8                vTaskStartScheduler
 .text.vTaskSuspendAll
                0x0800b054       0x10 Libraries/libstm32f4xx.a(tasks.o)
                0x0800b054                vTaskSuspendAll
 .text.xTaskGetTickCount
                0x0800b064       0x18 Libraries/libstm32f4xx.a(tasks.o)
                0x0800b064                xTaskGetTickCount
 .text.xTaskIncrementTick
                0x0800b07c      0x15c Libraries/libstm32f4xx.a(tasks.o)
                0x0800b07c                xTaskIncrementTick
 .text.xTaskResumeAll
                0x0800b1d8       0xe0 Libraries/libstm32f4xx.a(tasks.o)
                0x0800b1d8                xTaskResumeAll
 .text.uxTaskGetSystemState
                0x0800b2b8       0xf0 Libraries/libstm32f4xx.a(tasks.o)
                0x0800b2b8                uxTaskGetSystemState
 .text._ZL11prvIdleTaskPv
                0x0800b3a8       0x8c Libraries/libstm32f4xx.a(tasks.o)
 .text.vTaskDelay
                0x0800b434       0x44 Libraries/libstm32f4xx.a(tasks.o)
                0x0800b434                vTaskDelay
 .text.vTaskDelayUntil
                0x0800b478       0x90 Libraries/libstm32f4xx.a(tasks.o)
                0x0800b478                vTaskDelayUntil
 .text.vTaskSwitchContext
                0x0800b508       0xb8 Libraries/libstm32f4xx.a(tasks.o)
                0x0800b508                vTaskSwitchContext
 .text.vTaskPlaceOnEventList
                0x0800b5c0       0x4c Libraries/libstm32f4xx.a(tasks.o)
                0x0800b5c0                vTaskPlaceOnEventList
 .text.vTaskPlaceOnEventListRestricted
                0x0800b60c       0x34 Libraries/libstm32f4xx.a(tasks.o)
                0x0800b60c                vTaskPlaceOnEventListRestricted
 .text.xTaskRemoveFromEventList
                0x0800b640       0x88 Libraries/libstm32f4xx.a(tasks.o)
                0x0800b640                xTaskRemoveFromEventList
 .text.vTaskSetTimeOutState
                0x0800b6c8       0x20 Libraries/libstm32f4xx.a(tasks.o)
                0x0800b6c8                vTaskSetTimeOutState
 .text.xTaskCheckForTimeOut
                0x0800b6e8       0x70 Libraries/libstm32f4xx.a(tasks.o)
                0x0800b6e8                xTaskCheckForTimeOut
 .text.vTaskMissedYield
                0x0800b758       0x10 Libraries/libstm32f4xx.a(tasks.o)
                0x0800b758                vTaskMissedYield
 .text.xTaskGetCurrentTaskHandle
                0x0800b768        0xc Libraries/libstm32f4xx.a(tasks.o)
                0x0800b768                xTaskGetCurrentTaskHandle
 .text.xTaskGetSchedulerState
                0x0800b774       0x1c Libraries/libstm32f4xx.a(tasks.o)
                0x0800b774                xTaskGetSchedulerState
 .text.vTaskPriorityInherit
                0x0800b790       0x6c Libraries/libstm32f4xx.a(tasks.o)
                0x0800b790                vTaskPriorityInherit
 .text.vTaskPriorityDisinherit
                0x0800b7fc       0x48 Libraries/libstm32f4xx.a(tasks.o)
                0x0800b7fc                vTaskPriorityDisinherit
 .text.vTaskList
                0x0800b844       0xb0 Libraries/libstm32f4xx.a(tasks.o)
                0x0800b844                vTaskList
 .text._ZL28prvCheckForValidListAndQueuev
                0x0800b8f4       0x50 Libraries/libstm32f4xx.a(timers.o)
 .text._ZL26prvInsertTimerInActiveListP15tmrTimerControlmmm
                0x0800b944       0x58 Libraries/libstm32f4xx.a(timers.o)
 .text.xTimerCreateTimerTask
                0x0800b99c       0x40 Libraries/libstm32f4xx.a(timers.o)
                0x0800b99c                xTimerCreateTimerTask
 .text.xTimerGenericCommand
                0x0800b9dc       0x4c Libraries/libstm32f4xx.a(timers.o)
                0x0800b9dc                xTimerGenericCommand
 .text._ZL19prvSwitchTimerListsm.isra.1
                0x0800ba28       0x84 Libraries/libstm32f4xx.a(timers.o)
 .text._ZL12prvTimerTaskPv
                0x0800baac      0x174 Libraries/libstm32f4xx.a(timers.o)
 .text._ZL21prvPortStartFirstTaskv
                0x0800bc20       0x14 Libraries/libstm32f4xx.a(port.o)
 .text._ZL14vPortEnableVFPv
                0x0800bc34       0x14 Libraries/libstm32f4xx.a(port.o)
 .text.pxPortInitialiseStack
                0x0800bc48       0x2c Libraries/libstm32f4xx.a(port.o)
                0x0800bc48                pxPortInitialiseStack
 .text._Z15vPortSVCHandlerv
                0x0800bc74       0x1c Libraries/libstm32f4xx.a(port.o)
                0x0800bc74                vPortSVCHandler()
 .text.vPortYield
                0x0800bc90       0x18 Libraries/libstm32f4xx.a(port.o)
                0x0800bc90                vPortYield
 .text.ulPortSetInterruptMask
                0x0800bca8       0x10 Libraries/libstm32f4xx.a(port.o)
                0x0800bca8                ulPortSetInterruptMask
 .text.vPortEnterCritical
                0x0800bcb8       0x20 Libraries/libstm32f4xx.a(port.o)
                0x0800bcb8                vPortEnterCritical
 .text._ZL16prvTaskExitErrorv
                0x0800bcd8       0x1c Libraries/libstm32f4xx.a(port.o)
 .text.vPortClearInterruptMask
                0x0800bcf4        0x8 Libraries/libstm32f4xx.a(port.o)
                0x0800bcf4                vPortClearInterruptMask
 .text.vPortExitCritical
                0x0800bcfc       0x14 Libraries/libstm32f4xx.a(port.o)
                0x0800bcfc                vPortExitCritical
 .text._Z18xPortPendSVHandlerv
                0x0800bd10       0x50 Libraries/libstm32f4xx.a(port.o)
                0x0800bd10                xPortPendSVHandler()
 .text._Z19xPortSysTickHandlerv
                0x0800bd60       0x24 Libraries/libstm32f4xx.a(port.o)
                0x0800bd60                xPortSysTickHandler()
 .text._Z24vPortSetupTimerInterruptv
                0x0800bd84       0x34 Libraries/libstm32f4xx.a(port.o)
                0x0800bd84                vPortSetupTimerInterrupt()
 .text.xPortStartScheduler
                0x0800bdb8       0xb4 Libraries/libstm32f4xx.a(port.o)
                0x0800bdb8                xPortStartScheduler
 .text.vPortValidateInterruptPriority
                0x0800be6c       0x48 Libraries/libstm32f4xx.a(port.o)
                0x0800be6c                vPortValidateInterruptPriority
 .text.vListInitialise
                0x0800beb4       0x18 Libraries/libstm32f4xx.a(list.o)
                0x0800beb4                vListInitialise
 .text.vListInitialiseItem
                0x0800becc        0x8 Libraries/libstm32f4xx.a(list.o)
                0x0800becc                vListInitialiseItem
 .text.vListInsertEnd
                0x0800bed4       0x1c Libraries/libstm32f4xx.a(list.o)
                0x0800bed4                vListInsertEnd
 .text.vListInsert
                0x0800bef0       0x34 Libraries/libstm32f4xx.a(list.o)
                0x0800bef0                vListInsert
 .text.uxListRemove
                0x0800bf24       0x28 Libraries/libstm32f4xx.a(list.o)
                0x0800bf24                uxListRemove
 .text.pvPortMalloc
                0x0800bf4c       0xd0 Libraries/libstm32f4xx.a(heap_2.o)
                0x0800bf4c                pvPortMalloc
 .text.vPortFree
                0x0800c01c       0x40 Libraries/libstm32f4xx.a(heap_2.o)
                0x0800c01c                vPortFree
 *(.rodata)
 .rodata        0x0800c05c        0x4 ../../yagarto/bin/../arm-none-eabi/lib/thumb\libc.a(lib_a-impure.o)
                0x0800c05c                _global_impure_ptr
 .rodata        0x0800c060      0x184 ../../yagarto/bin/../arm-none-eabi/lib/thumb\libc.a(lib_a-svfprintf.o)
 .rodata        0x0800c1e4      0x184 ../../yagarto/bin/../arm-none-eabi/lib/thumb\libc.a(lib_a-vfprintf.o)
 .rodata        0x0800c368      0x128 ../../yagarto/bin/../arm-none-eabi/lib/thumb\libc.a(lib_a-mprec.o)
                0x0800c378                __mprec_tens
                0x0800c440                __mprec_tinytens
                0x0800c468                __mprec_bigtens
 .rodata        0x0800c490      0x184 ../../yagarto/bin/../arm-none-eabi/lib/thumb\libc.a(lib_a-svfiprintf.o)
 .rodata        0x0800c614      0x184 ../../yagarto/bin/../arm-none-eabi/lib/thumb\libc.a(lib_a-vfiprintf.o)
 *(.rodata*)
 .rodata.str1.4
                0x0800c798       0x73 src\Mpu-9250/HalI2c2.o
                                 0x78 (size before relaxing)
 *fill*         0x0800c80b        0x1 00
 .rodata.str1.4
                0x0800c80c       0x35 src/main.o
                                 0x38 (size before relaxing)
 *fill*         0x0800c841        0x3 00
 .rodata.str1.4
                0x0800c844       0x49 src\Stdout/SerialCommand.o
                                 0x4c (size before relaxing)
 *fill*         0x0800c88d        0x3 00
 .rodata._ZZ18vTaskSwitchContextE20ucExpectedStackBytes
                0x0800c890       0x14 Libraries/libstm32f4xx.a(tasks.o)
 .rodata.CSWTCH.228
                0x0800c8a4        0x4 Libraries/libstm32f4xx.a(tasks.o)
 .rodata.str1.4
                0x0800c8a8       0x1a Libraries/libstm32f4xx.a(tasks.o)
                                 0x1c (size before relaxing)
 *fill*         0x0800c8c2        0x2 00
 .rodata.str1.4
                0x0800c8c4        0x8 Libraries/libstm32f4xx.a(timers.o)
 .rodata.str1.4
                0x0800c8cc        0x2 ../../yagarto/bin/../arm-none-eabi/lib/thumb\libc.a(lib_a-impure.o)
                                  0x4 (size before relaxing)
 *fill*         0x0800c8ce        0x2 00
 .rodata.str1.4
                0x0800c8d0       0x42 ../../yagarto/bin/../arm-none-eabi/lib/thumb\libc.a(lib_a-svfprintf.o)
                                 0x44 (size before relaxing)
 .rodata.str1.4
                0x00000000       0x44 ../../yagarto/bin/../arm-none-eabi/lib/thumb\libc.a(lib_a-vfprintf.o)
 *fill*         0x0800c912        0x2 00
 .rodata.str1.4
                0x0800c914       0x10 ../../yagarto/bin/../arm-none-eabi/lib/thumb\libc.a(lib_a-dtoa.o)
                                 0x14 (size before relaxing)
 .rodata.str1.4
                0x0800c924        0xc ../../yagarto/bin/../arm-none-eabi/lib/thumb\libc.a(lib_a-locale.o)
                                 0x14 (size before relaxing)
 .rodata.str1.4
                0x00000000       0x30 ../../yagarto/bin/../arm-none-eabi/lib/thumb\libc.a(lib_a-svfiprintf.o)
 .rodata.str1.4
                0x00000000       0x30 ../../yagarto/bin/../arm-none-eabi/lib/thumb\libc.a(lib_a-vfiprintf.o)
 *(.glue_7)
 .glue_7        0x00000000        0x0 linker stubs
 *(.glue_7t)
 .glue_7t       0x00000000        0x0 linker stubs
 *(.eh_frame)
 .eh_frame      0x0800c930        0x0 e:/mydocument/dropbox/futuregadgetresearch/sa/eclipse_stm32/yagarto/bin/../lib/gcc/arm-none-eabi/4.6.2/thumb/v7m/crtbegin.o
 *(.init)
 .init          0x0800c930        0x4 e:/mydocument/dropbox/futuregadgetresearch/sa/eclipse_stm32/yagarto/bin/../lib/gcc/arm-none-eabi/4.6.2/thumb/v7m/crti.o
                0x0800c930                _init
 .init          0x0800c934        0x8 e:/mydocument/dropbox/futuregadgetresearch/sa/eclipse_stm32/yagarto/bin/../lib/gcc/arm-none-eabi/4.6.2/thumb/v7m/crtn.o
 *(.fini)
 .fini          0x0800c93c        0x4 e:/mydocument/dropbox/futuregadgetresearch/sa/eclipse_stm32/yagarto/bin/../lib/gcc/arm-none-eabi/4.6.2/thumb/v7m/crti.o
                0x0800c93c                _fini
 .fini          0x0800c940        0x8 e:/mydocument/dropbox/futuregadgetresearch/sa/eclipse_stm32/yagarto/bin/../lib/gcc/arm-none-eabi/4.6.2/thumb/v7m/crtn.o
                0x0800c948                . = ALIGN (0x4)
                0x0800c948                _etext = .

.vfp11_veneer   0x0800c948        0x0
 .vfp11_veneer  0x00000000        0x0 linker stubs

.v4_bx          0x0800c948        0x0
 .v4_bx         0x00000000        0x0 linker stubs

.ARM.extab
 *(.ARM.extab* .gnu.linkonce.armextab.*)

.ARM            0x0800c948        0x0
                0x0800c948                __exidx_start = .
 *(.ARM.exidx*)
                0x0800c948                __exidx_end = .

.preinit_array  0x0800c948        0x0
                0x0800c948                PROVIDE (__preinit_array_start, .)
 *(.preinit_array*)
                0x0800c948                PROVIDE (__preinit_array_end, .)

.init_array     0x0800c948        0x4
                0x0800c948                PROVIDE (__init_array_start, .)
 *(SORT(.init_array.*))
 *(.init_array*)
 .init_array    0x0800c948        0x4 e:/mydocument/dropbox/futuregadgetresearch/sa/eclipse_stm32/yagarto/bin/../lib/gcc/arm-none-eabi/4.6.2/thumb/v7m/crtbegin.o
                0x0800c94c                PROVIDE (__init_array_end, .)

.fini_array     0x0800c94c        0x4
                0x0800c94c                PROVIDE (__fini_array_start, .)
 *(.fini_array*)
 .fini_array    0x0800c94c        0x4 e:/mydocument/dropbox/futuregadgetresearch/sa/eclipse_stm32/yagarto/bin/../lib/gcc/arm-none-eabi/4.6.2/thumb/v7m/crtbegin.o
 *(SORT(.fini_array.*))
                0x0800c950                PROVIDE (__fini_array_end, .)
                0x0800c950                _sidata = .

.data           0x20000000      0x8e0 load address 0x0800c950
                0x20000000                . = ALIGN (0x4)
                0x20000000                _sdata = .
 *(.data)
 .data          0x20000000      0x430 ../../yagarto/bin/../arm-none-eabi/lib/thumb\libc.a(lib_a-impure.o)
                0x20000000                _impure_ptr
 .data          0x20000430      0x410 ../../yagarto/bin/../arm-none-eabi/lib/thumb\libc.a(lib_a-mallocr.o)
                0x20000430                __malloc_av_
                0x20000838                __malloc_sbrk_base
                0x2000083c                __malloc_trim_threshold
 .data          0x20000840       0x7c ../../yagarto/bin/../arm-none-eabi/lib/thumb\libc.a(lib_a-locale.o)
                0x20000860                __mb_cur_max
 .data          0x200008bc        0x4 ../../yagarto/bin/../arm-none-eabi/lib/thumb\libc.a(lib_a-wctomb_r.o)
                0x200008bc                __wctomb
 *(.data*)
 .data.SystemCoreClock
                0x200008c0        0x4 src/system_stm32f4xx.o
                0x200008c0                SystemCoreClock
 .data._ZL16APBAHBPrescTable
                0x200008c4       0x10 Libraries/libstm32f4xx.a(stm32f4xx_rcc.o)
 .data._ZL20xNextTaskUnblockTime
                0x200008d4        0x4 Libraries/libstm32f4xx.a(tasks.o)
 .data._ZL17uxCriticalNesting
                0x200008d8        0x4 Libraries/libstm32f4xx.a(port.o)
 .data._ZL19xFreeBytesRemaining
                0x200008dc        0x4 Libraries/libstm32f4xx.a(heap_2.o)
                0x200008e0                . = ALIGN (0x4)
                0x200008e0                _edata = .

.jcr            0x200008e0        0x0 load address 0x0800d230
 .jcr           0x200008e0        0x0 e:/mydocument/dropbox/futuregadgetresearch/sa/eclipse_stm32/yagarto/bin/../lib/gcc/arm-none-eabi/4.6.2/thumb/v7m/crtbegin.o
                0x200008e0                . = ALIGN (0x4)

.bss            0x200008e0    0x131d8 load address 0x0800d230
                0x200008e0                _sbss = .
                0x200008e0                __bss_start__ = _sbss
 *(.bss)
 .bss           0x200008e0       0x1c e:/mydocument/dropbox/futuregadgetresearch/sa/eclipse_stm32/yagarto/bin/../lib/gcc/arm-none-eabi/4.6.2/thumb/v7m/crtbegin.o
 .bss           0x200008fc       0x34 ../../yagarto/bin/../arm-none-eabi/lib/thumb\libc.a(lib_a-mallocr.o)
                0x200008fc                __malloc_top_pad
                0x20000900                __malloc_current_mallinfo
                0x20000928                __malloc_max_sbrked_mem
                0x2000092c                __malloc_max_total_mem
 *(.bss*)
 .bss.usart2RxBuf
                0x20000930        0x4 src\Stdout/HalUsart.o
                0x20000930                usart2RxBuf
 .bss.usart2Que
                0x20000934        0x4 src\Stdout/HalUsart.o
                0x20000934                usart2Que
 .bss.usart2TxBuf
                0x20000938        0x4 src\Stdout/HalUsart.o
                0x20000938                usart2TxBuf
 .bss._i2cAddress
                0x2000093c        0x4 src\Mpu-9250/HalI2c2.o
                0x2000093c                _i2cAddress
 .bss.i2c2RxBuf
                0x20000940        0x4 src\Mpu-9250/HalI2c2.o
                0x20000940                i2c2RxBuf
 .bss._state    0x20000944        0x4 src\Mpu-9250/HalI2c2.o
                0x20000944                _state
 .bss.i2c2Sem   0x20000948        0x4 src\Mpu-9250/HalI2c2.o
                0x20000948                i2c2Sem
 .bss._rw       0x2000094c        0x4 src\Mpu-9250/HalI2c2.o
                0x2000094c                _rw
 .bss.i2c2TxBuf
                0x20000950        0x4 src\Mpu-9250/HalI2c2.o
                0x20000950                i2c2TxBuf
 .bss._ZZ20vApplicationIdleHookvE10idle_count
                0x20000954        0x4 src/main.o
 .bss._ZZ5_sbrkE4heap
                0x20000958        0x4 src/tweak.o
 .bss.buf       0x2000095c      0x400 src\Stdout/SerialCommand.o
                0x2000095c                buf
 .bss.spi1TxBuf
                0x20000d5c        0x4 src\Adis16488/HalSpi.o
                0x20000d5c                spi1TxBuf
 .bss.spi1RxBuf
                0x20000d60        0x4 src\Adis16488/HalSpi.o
                0x20000d60                spi1RxBuf
 .bss._ZL24xTasksWaitingTermination
                0x20000d64       0x14 Libraries/libstm32f4xx.a(tasks.o)
 .bss._ZL17pxReadyTasksLists
                0x20000d78       0x64 Libraries/libstm32f4xx.a(tasks.o)
 .bss._ZL13uxPendedTicks
                0x20000ddc        0x4 Libraries/libstm32f4xx.a(tasks.o)
 .bss._ZL17xPendingReadyList
                0x20000de0       0x14 Libraries/libstm32f4xx.a(tasks.o)
 .bss._ZL18xSuspendedTaskList
                0x20000df4       0x14 Libraries/libstm32f4xx.a(tasks.o)
 .bss._ZL22uxCurrentNumberOfTasks
                0x20000e08        0x4 Libraries/libstm32f4xx.a(tasks.o)
 .bss._ZL25pxOverflowDelayedTaskList
                0x20000e0c        0x4 Libraries/libstm32f4xx.a(tasks.o)
 .bss._ZL17xDelayedTaskList1
                0x20000e10       0x14 Libraries/libstm32f4xx.a(tasks.o)
 .bss._ZL17xDelayedTaskList2
                0x20000e24       0x14 Libraries/libstm32f4xx.a(tasks.o)
 .bss._ZL10xTickCount
                0x20000e38        0x4 Libraries/libstm32f4xx.a(tasks.o)
 .bss.pxCurrentTCB
                0x20000e3c        0x4 Libraries/libstm32f4xx.a(tasks.o)
                0x20000e3c                pxCurrentTCB
 .bss._ZL17xSchedulerRunning
                0x20000e40        0x4 Libraries/libstm32f4xx.a(tasks.o)
 .bss._ZL17pxDelayedTaskList
                0x20000e44        0x4 Libraries/libstm32f4xx.a(tasks.o)
 .bss._ZL12uxTaskNumber
                0x20000e48        0x4 Libraries/libstm32f4xx.a(tasks.o)
 .bss._ZL14uxTasksDeleted
                0x20000e4c        0x4 Libraries/libstm32f4xx.a(tasks.o)
 .bss._ZL13xYieldPending
                0x20000e50        0x4 Libraries/libstm32f4xx.a(tasks.o)
 .bss._ZL20uxSchedulerSuspended
                0x20000e54        0x4 Libraries/libstm32f4xx.a(tasks.o)
 .bss._ZL15xNumOfOverflows
                0x20000e58        0x4 Libraries/libstm32f4xx.a(tasks.o)
 .bss._ZL18uxTopReadyPriority
                0x20000e5c        0x4 Libraries/libstm32f4xx.a(tasks.o)
 .bss._ZL11xTimerQueue
                0x20000e60        0x4 Libraries/libstm32f4xx.a(timers.o)
 .bss._ZL18pxCurrentTimerList
                0x20000e64        0x4 Libraries/libstm32f4xx.a(timers.o)
 .bss._ZZL16prvSampleTimeNowPlE9xLastTime
                0x20000e68        0x4 Libraries/libstm32f4xx.a(timers.o)
 .bss._ZL17xActiveTimerList1
                0x20000e6c       0x14 Libraries/libstm32f4xx.a(timers.o)
 .bss._ZL17xActiveTimerList2
                0x20000e80       0x14 Libraries/libstm32f4xx.a(timers.o)
 .bss._ZL19pxOverflowTimerList
                0x20000e94        0x4 Libraries/libstm32f4xx.a(timers.o)
 .bss._ZL20ucMaxSysCallPriority
                0x20000e98        0x1 Libraries/libstm32f4xx.a(port.o)
 *fill*         0x20000e99        0x3 00
 .bss._ZL18ulMaxPRIGROUPValue
                0x20000e9c        0x4 Libraries/libstm32f4xx.a(port.o)
 .bss._ZZ12pvPortMallocE23xHeapHasBeenInitialised
                0x20000ea0        0x4 Libraries/libstm32f4xx.a(heap_2.o)
 .bss._ZL6xStart
                0x20000ea4        0x8 Libraries/libstm32f4xx.a(heap_2.o)
 .bss._ZL4xEnd  0x20000eac        0x8 Libraries/libstm32f4xx.a(heap_2.o)
 .bss._ZL6ucHeap
                0x20000eb4    0x12c00 Libraries/libstm32f4xx.a(heap_2.o)
 *(COMMON)
 COMMON         0x20013ab4        0x4 ../../yagarto/bin/../arm-none-eabi/lib/thumb\libc.a(lib_a-reent.o)
                0x20013ab4                errno
                0x20013ab8                . = ALIGN (0x4)
                0x20013ab8                _ebss = .
                0x20013ab8                __bss_end__ = _ebss

._user_heap_stack
                0x20013ab8      0x400 load address 0x08020408
                0x20013ab8                . = ALIGN (0x4)
                0x20013ab8                PROVIDE (end, .)
                0x20013ab8                PROVIDE (_end, .)
                0x20013ab8                . = (. + _Min_Heap_Size)
                0x20013eb8                . = (. + _Min_Stack_Size)
 *fill*         0x20013ab8      0x400 00
                0x20013eb8                . = ALIGN (0x4)

.memory_b1_text
 *(.mb1text)
 *(.mb1text*)
 *(.mb1rodata)
 *(.mb1rodata*)

/DISCARD/
 libc.a(*)
 libm.a(*)
 libgcc.a(*)

.ARM.attributes
                0x00000000       0x35
 *(.ARM.attributes)
 .ARM.attributes
                0x00000000       0x1d e:/mydocument/dropbox/futuregadgetresearch/sa/eclipse_stm32/yagarto/bin/../lib/gcc/arm-none-eabi/4.6.2/thumb/v7m/crti.o
 .ARM.attributes
                0x0000001d       0x2b e:/mydocument/dropbox/futuregadgetresearch/sa/eclipse_stm32/yagarto/bin/../lib/gcc/arm-none-eabi/4.6.2/thumb/v7m/crtbegin.o
 .ARM.attributes
                0x00000048       0x1b e:/mydocument/dropbox/futuregadgetresearch/sa/eclipse_stm32/yagarto/bin/../lib/gcc/arm-none-eabi/4.6.2/../../../../arm-none-eabi/lib/thumb/v7m/crt0.o
 .ARM.attributes
                0x00000063       0x37 src/stm32f4xx_it.o
 .ARM.attributes
                0x0000009a       0x37 src/syscalls.o
 .ARM.attributes
                0x000000d1       0x37 src/system_stm32f4xx.o
 .ARM.attributes
                0x00000108       0x37 src\Stdout/HalUsart.o
 .ARM.attributes
                0x0000013f       0x37 src\Mpu-9250/HalI2c2.o
 .ARM.attributes
                0x00000176       0x37 src\Servo/HalTim.o
 .ARM.attributes
                0x000001ad       0x37 src/main.o
 .ARM.attributes
                0x000001e4       0x37 src/tweak.o
 .ARM.attributes
                0x0000021b       0x37 src\Stdout/SerialCommand.o
 .ARM.attributes
                0x00000252       0x37 src\Adis16488/Adis16488.o
 .ARM.attributes
                0x00000289       0x37 src\Adis16488/HalSpi.o
 .ARM.attributes
                0x000002c0       0x21 Libraries/CMSIS/Device/ST/STM32F4xx/Source/Templates/gcc_ride7/startup_stm32f4xx.o
 .ARM.attributes
                0x000002e1       0x37 Libraries/libstm32f4xx.a(misc.o)
 .ARM.attributes
                0x00000318       0x37 Libraries/libstm32f4xx.a(stm32f4xx_dma.o)
 .ARM.attributes
                0x0000034f       0x37 Libraries/libstm32f4xx.a(stm32f4xx_exti.o)
 .ARM.attributes
                0x00000386       0x37 Libraries/libstm32f4xx.a(stm32f4xx_gpio.o)
 .ARM.attributes
                0x000003bd       0x37 Libraries/libstm32f4xx.a(stm32f4xx_i2c.o)
 .ARM.attributes
                0x000003f4       0x37 Libraries/libstm32f4xx.a(stm32f4xx_rcc.o)
 .ARM.attributes
                0x0000042b       0x37 Libraries/libstm32f4xx.a(stm32f4xx_spi.o)
 .ARM.attributes
                0x00000462       0x37 Libraries/libstm32f4xx.a(stm32f4xx_tim.o)
 .ARM.attributes
                0x00000499       0x37 Libraries/libstm32f4xx.a(stm32f4xx_usart.o)
 .ARM.attributes
                0x000004d0       0x37 Libraries/libstm32f4xx.a(queue.o)
 .ARM.attributes
                0x00000507       0x37 Libraries/libstm32f4xx.a(tasks.o)
 .ARM.attributes
                0x0000053e       0x37 Libraries/libstm32f4xx.a(timers.o)
 .ARM.attributes
                0x00000575       0x37 Libraries/libstm32f4xx.a(port.o)
 .ARM.attributes
                0x000005ac       0x37 Libraries/libstm32f4xx.a(list.o)
 .ARM.attributes
                0x000005e3       0x37 Libraries/libstm32f4xx.a(heap_2.o)
 .ARM.attributes
                0x0000061a       0x32 ../../yagarto/bin/../arm-none-eabi/lib/thumb\libc.a(lib_a-atexit.o)
 .ARM.attributes
                0x0000064c       0x32 ../../yagarto/bin/../arm-none-eabi/lib/thumb\libc.a(lib_a-errno.o)
 .ARM.attributes
                0x0000067e       0x32 ../../yagarto/bin/../arm-none-eabi/lib/thumb\libc.a(lib_a-exit.o)
 .ARM.attributes
                0x000006b0       0x32 ../../yagarto/bin/../arm-none-eabi/lib/thumb\libc.a(lib_a-fini.o)
 .ARM.attributes
                0x000006e2       0x32 ../../yagarto/bin/../arm-none-eabi/lib/thumb\libc.a(lib_a-impure.o)
 .ARM.attributes
                0x00000714       0x32 ../../yagarto/bin/../arm-none-eabi/lib/thumb\libc.a(lib_a-init.o)
 .ARM.attributes
                0x00000746       0x32 ../../yagarto/bin/../arm-none-eabi/lib/thumb\libc.a(lib_a-malloc.o)
 .ARM.attributes
                0x00000778       0x32 ../../yagarto/bin/../arm-none-eabi/lib/thumb\libc.a(lib_a-mallocr.o)
 .ARM.attributes
                0x000007aa       0x32 ../../yagarto/bin/../arm-none-eabi/lib/thumb\libc.a(lib_a-memcmp.o)
 .ARM.attributes
                0x000007dc       0x32 ../../yagarto/bin/../arm-none-eabi/lib/thumb\libc.a(lib_a-memcpy.o)
 .ARM.attributes
                0x0000080e       0x32 ../../yagarto/bin/../arm-none-eabi/lib/thumb\libc.a(lib_a-memset.o)
 .ARM.attributes
                0x00000840       0x32 ../../yagarto/bin/../arm-none-eabi/lib/thumb\libc.a(lib_a-mlock.o)
 .ARM.attributes
                0x00000872       0x32 ../../yagarto/bin/../arm-none-eabi/lib/thumb\libc.a(lib_a-printf.o)
 .ARM.attributes
                0x000008a4       0x32 ../../yagarto/bin/../arm-none-eabi/lib/thumb\libc.a(lib_a-sbrkr.o)
 .ARM.attributes
                0x000008d6       0x32 ../../yagarto/bin/../arm-none-eabi/lib/thumb\libc.a(lib_a-sprintf.o)
 .ARM.attributes
                0x00000908       0x32 ../../yagarto/bin/../arm-none-eabi/lib/thumb\libc.a(lib_a-strlen.o)
 .ARM.attributes
                0x0000093a       0x32 ../../yagarto/bin/../arm-none-eabi/lib/thumb\libc.a(lib_a-strncmp.o)
 .ARM.attributes
                0x0000096c       0x32 ../../yagarto/bin/../arm-none-eabi/lib/thumb\libc.a(lib_a-svfprintf.o)
 .ARM.attributes
                0x0000099e       0x32 ../../yagarto/bin/../arm-none-eabi/lib/thumb\libc.a(lib_a-vfprintf.o)
 .ARM.attributes
                0x000009d0       0x32 ../../yagarto/bin/../arm-none-eabi/lib/thumb\libc.a(lib_a-wsetup.o)
 .ARM.attributes
                0x00000a02       0x32 ../../yagarto/bin/../arm-none-eabi/lib/thumb\libc.a(lib_a-__atexit.o)
 .ARM.attributes
                0x00000a34       0x32 ../../yagarto/bin/../arm-none-eabi/lib/thumb\libc.a(lib_a-__call_atexit.o)
 .ARM.attributes
                0x00000a66       0x32 ../../yagarto/bin/../arm-none-eabi/lib/thumb\libc.a(lib_a-dtoa.o)
 .ARM.attributes
                0x00000a98       0x32 ../../yagarto/bin/../arm-none-eabi/lib/thumb\libc.a(lib_a-fflush.o)
 .ARM.attributes
                0x00000aca       0x32 ../../yagarto/bin/../arm-none-eabi/lib/thumb\libc.a(lib_a-findfp.o)
 .ARM.attributes
                0x00000afc       0x32 ../../yagarto/bin/../arm-none-eabi/lib/thumb\libc.a(lib_a-freer.o)
 .ARM.attributes
                0x00000b2e       0x32 ../../yagarto/bin/../arm-none-eabi/lib/thumb\libc.a(lib_a-fwalk.o)
 .ARM.attributes
                0x00000b60       0x32 ../../yagarto/bin/../arm-none-eabi/lib/thumb\libc.a(lib_a-locale.o)
 .ARM.attributes
                0x00000b92       0x32 ../../yagarto/bin/../arm-none-eabi/lib/thumb\libc.a(lib_a-makebuf.o)
 .ARM.attributes
                0x00000bc4       0x32 ../../yagarto/bin/../arm-none-eabi/lib/thumb\libc.a(lib_a-memchr.o)
 .ARM.attributes
                0x00000bf6       0x32 ../../yagarto/bin/../arm-none-eabi/lib/thumb\libc.a(lib_a-mprec.o)
 .ARM.attributes
                0x00000c28       0x32 ../../yagarto/bin/../arm-none-eabi/lib/thumb\libc.a(lib_a-reent.o)
 .ARM.attributes
                0x00000c5a       0x32 ../../yagarto/bin/../arm-none-eabi/lib/thumb\libc.a(lib_a-s_fpclassify.o)
 .ARM.attributes
                0x00000c8c       0x32 ../../yagarto/bin/../arm-none-eabi/lib/thumb\libc.a(lib_a-stdio.o)
 .ARM.attributes
                0x00000cbe       0x32 ../../yagarto/bin/../arm-none-eabi/lib/thumb\libc.a(lib_a-strcmp.o)
 .ARM.attributes
                0x00000cf0       0x32 ../../yagarto/bin/../arm-none-eabi/lib/thumb\libc.a(lib_a-svfiprintf.o)
 .ARM.attributes
                0x00000d22       0x32 ../../yagarto/bin/../arm-none-eabi/lib/thumb\libc.a(lib_a-vfiprintf.o)
 .ARM.attributes
                0x00000d54       0x32 ../../yagarto/bin/../arm-none-eabi/lib/thumb\libc.a(lib_a-callocr.o)
 .ARM.attributes
                0x00000d86       0x32 ../../yagarto/bin/../arm-none-eabi/lib/thumb\libc.a(lib_a-fclose.o)
 .ARM.attributes
                0x00000db8       0x32 ../../yagarto/bin/../arm-none-eabi/lib/thumb\libc.a(lib_a-fputwc.o)
 .ARM.attributes
                0x00000dea       0x32 ../../yagarto/bin/../arm-none-eabi/lib/thumb\libc.a(lib_a-fvwrite.o)
 .ARM.attributes
                0x00000e1c       0x32 ../../yagarto/bin/../arm-none-eabi/lib/thumb\libc.a(lib_a-memmove.o)
 .ARM.attributes
                0x00000e4e       0x32 ../../yagarto/bin/../arm-none-eabi/lib/thumb\libc.a(lib_a-reallocr.o)
 .ARM.attributes
                0x00000e80       0x32 ../../yagarto/bin/../arm-none-eabi/lib/thumb\libc.a(lib_a-wbuf.o)
 .ARM.attributes
                0x00000eb2       0x32 ../../yagarto/bin/../arm-none-eabi/lib/thumb\libc.a(lib_a-wcrtomb.o)
 .ARM.attributes
                0x00000ee4       0x32 ../../yagarto/bin/../arm-none-eabi/lib/thumb\libc.a(lib_a-wctomb_r.o)
 .ARM.attributes
                0x00000f16       0x1d e:/mydocument/dropbox/futuregadgetresearch/sa/eclipse_stm32/yagarto/bin/../lib/gcc/arm-none-eabi/4.6.2/thumb/v7m\libgcc.a(_udivsi3.o)
 .ARM.attributes
                0x00000f33       0x1d e:/mydocument/dropbox/futuregadgetresearch/sa/eclipse_stm32/yagarto/bin/../lib/gcc/arm-none-eabi/4.6.2/thumb/v7m\libgcc.a(_divsi3.o)
 .ARM.attributes
                0x00000f50       0x1d e:/mydocument/dropbox/futuregadgetresearch/sa/eclipse_stm32/yagarto/bin/../lib/gcc/arm-none-eabi/4.6.2/thumb/v7m\libgcc.a(_dvmd_tls.o)
 .ARM.attributes
                0x00000f6d       0x1d e:/mydocument/dropbox/futuregadgetresearch/sa/eclipse_stm32/yagarto/bin/../lib/gcc/arm-none-eabi/4.6.2/thumb/v7m\libgcc.a(_arm_addsubdf3.o)
 .ARM.attributes
                0x00000f8a       0x1d e:/mydocument/dropbox/futuregadgetresearch/sa/eclipse_stm32/yagarto/bin/../lib/gcc/arm-none-eabi/4.6.2/thumb/v7m\libgcc.a(_arm_muldivdf3.o)
 .ARM.attributes
                0x00000fa7       0x1d e:/mydocument/dropbox/futuregadgetresearch/sa/eclipse_stm32/yagarto/bin/../lib/gcc/arm-none-eabi/4.6.2/thumb/v7m\libgcc.a(_arm_cmpdf2.o)
 .ARM.attributes
                0x00000fc4       0x1d e:/mydocument/dropbox/futuregadgetresearch/sa/eclipse_stm32/yagarto/bin/../lib/gcc/arm-none-eabi/4.6.2/thumb/v7m\libgcc.a(_arm_fixdfsi.o)
 .ARM.attributes
                0x00000fe1       0x2b e:/mydocument/dropbox/futuregadgetresearch/sa/eclipse_stm32/yagarto/bin/../lib/gcc/arm-none-eabi/4.6.2/thumb/v7m/crtend.o
 .ARM.attributes
                0x0000100c       0x1d e:/mydocument/dropbox/futuregadgetresearch/sa/eclipse_stm32/yagarto/bin/../lib/gcc/arm-none-eabi/4.6.2/thumb/v7m/crtn.o
OUTPUT(bin\main.elf elf32-littlearm)

.debug_line     0x00000000    0x1318b
 .debug_line    0x00000000       0x68 e:/mydocument/dropbox/futuregadgetresearch/sa/eclipse_stm32/yagarto/bin/../lib/gcc/arm-none-eabi/4.6.2/thumb/v7m/crti.o
 .debug_line    0x00000068       0x8a e:/mydocument/dropbox/futuregadgetresearch/sa/eclipse_stm32/yagarto/bin/../lib/gcc/arm-none-eabi/4.6.2/../../../../arm-none-eabi/lib/thumb/v7m/crt0.o
 .debug_line    0x000000f2      0xb73 src/stm32f4xx_it.o
 .debug_line    0x00000c65      0x6c0 src/syscalls.o
 .debug_line    0x00001325      0x49f src/system_stm32f4xx.o
 .debug_line    0x000017c4      0x825 src\Stdout/HalUsart.o
 .debug_line    0x00001fe9      0x99d src\Mpu-9250/HalI2c2.o
 .debug_line    0x00002986      0x70a src\Servo/HalTim.o
 .debug_line    0x00003090      0xc66 src/main.o
 .debug_line    0x00003cf6      0x46f src/tweak.o
 .debug_line    0x00004165      0x723 src\Stdout/SerialCommand.o
 .debug_line    0x00004888      0x6cd src\Adis16488/Adis16488.o
 .debug_line    0x00004f55      0x7e9 src\Adis16488/HalSpi.o
 .debug_line    0x0000573e       0xa9 Libraries/CMSIS/Device/ST/STM32F4xx/Source/Templates/gcc_ride7/startup_stm32f4xx.o
 .debug_line    0x000057e7      0x4b6 Libraries/libstm32f4xx.a(misc.o)
 .debug_line    0x00005c9d      0x6b3 Libraries/libstm32f4xx.a(stm32f4xx_dma.o)
 .debug_line    0x00006350      0x515 Libraries/libstm32f4xx.a(stm32f4xx_exti.o)
 .debug_line    0x00006865      0x5dd Libraries/libstm32f4xx.a(stm32f4xx_gpio.o)
 .debug_line    0x00006e42      0x784 Libraries/libstm32f4xx.a(stm32f4xx_i2c.o)
 .debug_line    0x000075c6      0x827 Libraries/libstm32f4xx.a(stm32f4xx_rcc.o)
 .debug_line    0x00007ded      0x711 Libraries/libstm32f4xx.a(stm32f4xx_spi.o)
 .debug_line    0x000084fe      0xe90 Libraries/libstm32f4xx.a(stm32f4xx_tim.o)
 .debug_line    0x0000938e      0x746 Libraries/libstm32f4xx.a(stm32f4xx_usart.o)
 .debug_line    0x00009ad4      0x8eb Libraries/libstm32f4xx.a(queue.o)
 .debug_line    0x0000a3bf      0xc2c Libraries/libstm32f4xx.a(tasks.o)
 .debug_line    0x0000afeb      0x544 Libraries/libstm32f4xx.a(timers.o)
 .debug_line    0x0000b52f      0x3bc Libraries/libstm32f4xx.a(port.o)
 .debug_line    0x0000b8eb      0x435 Libraries/libstm32f4xx.a(list.o)
 .debug_line    0x0000bd20      0x44c Libraries/libstm32f4xx.a(heap_2.o)
 .debug_line    0x0000c16c       0xc1 ../../yagarto/bin/../arm-none-eabi/lib/thumb\libc.a(lib_a-atexit.o)
 .debug_line    0x0000c22d      0x130 ../../yagarto/bin/../arm-none-eabi/lib/thumb\libc.a(lib_a-errno.o)
 .debug_line    0x0000c35d      0x16e ../../yagarto/bin/../arm-none-eabi/lib/thumb\libc.a(lib_a-exit.o)
 .debug_line    0x0000c4cb       0xdb ../../yagarto/bin/../arm-none-eabi/lib/thumb\libc.a(lib_a-fini.o)
 .debug_line    0x0000c5a6      0x113 ../../yagarto/bin/../arm-none-eabi/lib/thumb\libc.a(lib_a-impure.o)
 .debug_line    0x0000c6b9       0xed ../../yagarto/bin/../arm-none-eabi/lib/thumb\libc.a(lib_a-init.o)
 .debug_line    0x0000c7a6      0x174 ../../yagarto/bin/../arm-none-eabi/lib/thumb\libc.a(lib_a-malloc.o)
 .debug_line    0x0000c91a      0x354 ../../yagarto/bin/../arm-none-eabi/lib/thumb\libc.a(lib_a-mallocr.o)
 .debug_line    0x0000cc6e      0x147 ../../yagarto/bin/../arm-none-eabi/lib/thumb\libc.a(lib_a-memcmp.o)
 .debug_line    0x0000cdb5      0x161 ../../yagarto/bin/../arm-none-eabi/lib/thumb\libc.a(lib_a-memcpy.o)
 .debug_line    0x0000cf16      0x15c ../../yagarto/bin/../arm-none-eabi/lib/thumb\libc.a(lib_a-memset.o)
 .debug_line    0x0000d072      0x125 ../../yagarto/bin/../arm-none-eabi/lib/thumb\libc.a(lib_a-mlock.o)
 .debug_line    0x0000d197      0x191 ../../yagarto/bin/../arm-none-eabi/lib/thumb\libc.a(lib_a-printf.o)
 .debug_line    0x0000d328      0x172 ../../yagarto/bin/../arm-none-eabi/lib/thumb\libc.a(lib_a-sbrkr.o)
 .debug_line    0x0000d49a      0x1b7 ../../yagarto/bin/../arm-none-eabi/lib/thumb\libc.a(lib_a-sprintf.o)
 .debug_line    0x0000d651      0x11c ../../yagarto/bin/../arm-none-eabi/lib/thumb\libc.a(lib_a-strlen.o)
 .debug_line    0x0000d76d      0x175 ../../yagarto/bin/../arm-none-eabi/lib/thumb\libc.a(lib_a-strncmp.o)
 .debug_line    0x0000d8e2      0x89b ../../yagarto/bin/../arm-none-eabi/lib/thumb\libc.a(lib_a-svfprintf.o)
 .debug_line    0x0000e17d      0x8f7 ../../yagarto/bin/../arm-none-eabi/lib/thumb\libc.a(lib_a-vfprintf.o)
 .debug_line    0x0000ea74      0x1c1 ../../yagarto/bin/../arm-none-eabi/lib/thumb\libc.a(lib_a-wsetup.o)
 .debug_line    0x0000ec35      0x162 ../../yagarto/bin/../arm-none-eabi/lib/thumb\libc.a(lib_a-__atexit.o)
 .debug_line    0x0000ed97      0x1c8 ../../yagarto/bin/../arm-none-eabi/lib/thumb\libc.a(lib_a-__call_atexit.o)
 .debug_line    0x0000ef5f      0x72f ../../yagarto/bin/../arm-none-eabi/lib/thumb\libc.a(lib_a-dtoa.o)
 .debug_line    0x0000f68e      0x201 ../../yagarto/bin/../arm-none-eabi/lib/thumb\libc.a(lib_a-fflush.o)
 .debug_line    0x0000f88f      0x20b ../../yagarto/bin/../arm-none-eabi/lib/thumb\libc.a(lib_a-findfp.o)
 .debug_line    0x0000fa9a      0x1fe ../../yagarto/bin/../arm-none-eabi/lib/thumb\libc.a(lib_a-freer.o)
 .debug_line    0x0000fc98      0x1a1 ../../yagarto/bin/../arm-none-eabi/lib/thumb\libc.a(lib_a-fwalk.o)
 .debug_line    0x0000fe39      0x1b7 ../../yagarto/bin/../arm-none-eabi/lib/thumb\libc.a(lib_a-locale.o)
 .debug_line    0x0000fff0      0x1d2 ../../yagarto/bin/../arm-none-eabi/lib/thumb\libc.a(lib_a-makebuf.o)
 .debug_line    0x000101c2      0x14b ../../yagarto/bin/../arm-none-eabi/lib/thumb\libc.a(lib_a-memchr.o)
 .debug_line    0x0001030d      0x59d ../../yagarto/bin/../arm-none-eabi/lib/thumb\libc.a(lib_a-mprec.o)
 .debug_line    0x000108aa      0x166 ../../yagarto/bin/../arm-none-eabi/lib/thumb\libc.a(lib_a-reent.o)
 .debug_line    0x00010a10      0x149 ../../yagarto/bin/../arm-none-eabi/lib/thumb\libc.a(lib_a-s_fpclassify.o)
 .debug_line    0x00010b59      0x190 ../../yagarto/bin/../arm-none-eabi/lib/thumb\libc.a(lib_a-stdio.o)
 .debug_line    0x00010ce9       0xbb ../../yagarto/bin/../arm-none-eabi/lib/thumb\libc.a(lib_a-strcmp.o)
 .debug_line    0x00010da4      0x5bc ../../yagarto/bin/../arm-none-eabi/lib/thumb\libc.a(lib_a-svfiprintf.o)
 .debug_line    0x00011360      0x5cc ../../yagarto/bin/../arm-none-eabi/lib/thumb\libc.a(lib_a-vfiprintf.o)
 .debug_line    0x0001192c      0x153 ../../yagarto/bin/../arm-none-eabi/lib/thumb\libc.a(lib_a-callocr.o)
 .debug_line    0x00011a7f      0x1b2 ../../yagarto/bin/../arm-none-eabi/lib/thumb\libc.a(lib_a-fclose.o)
 .debug_line    0x00011c31      0x1b8 ../../yagarto/bin/../arm-none-eabi/lib/thumb\libc.a(lib_a-fputwc.o)
 .debug_line    0x00011de9      0x29f ../../yagarto/bin/../arm-none-eabi/lib/thumb\libc.a(lib_a-fvwrite.o)
 .debug_line    0x00012088      0x17c ../../yagarto/bin/../arm-none-eabi/lib/thumb\libc.a(lib_a-memmove.o)
 .debug_line    0x00012204      0x29c ../../yagarto/bin/../arm-none-eabi/lib/thumb\libc.a(lib_a-reallocr.o)
 .debug_line    0x000124a0      0x1dd ../../yagarto/bin/../arm-none-eabi/lib/thumb\libc.a(lib_a-wbuf.o)
 .debug_line    0x0001267d      0x198 ../../yagarto/bin/../arm-none-eabi/lib/thumb\libc.a(lib_a-wcrtomb.o)
 .debug_line    0x00012815      0x197 ../../yagarto/bin/../arm-none-eabi/lib/thumb\libc.a(lib_a-wctomb_r.o)
 .debug_line    0x000129ac       0x93 e:/mydocument/dropbox/futuregadgetresearch/sa/eclipse_stm32/yagarto/bin/../lib/gcc/arm-none-eabi/4.6.2/thumb/v7m\libgcc.a(_udivsi3.o)
 .debug_line    0x00012a3f       0xa4 e:/mydocument/dropbox/futuregadgetresearch/sa/eclipse_stm32/yagarto/bin/../lib/gcc/arm-none-eabi/4.6.2/thumb/v7m\libgcc.a(_divsi3.o)
 .debug_line    0x00012ae3       0x70 e:/mydocument/dropbox/futuregadgetresearch/sa/eclipse_stm32/yagarto/bin/../lib/gcc/arm-none-eabi/4.6.2/thumb/v7m\libgcc.a(_dvmd_tls.o)
 .debug_line    0x00012b53      0x20d e:/mydocument/dropbox/futuregadgetresearch/sa/eclipse_stm32/yagarto/bin/../lib/gcc/arm-none-eabi/4.6.2/thumb/v7m\libgcc.a(_arm_addsubdf3.o)
 .debug_line    0x00012d60      0x229 e:/mydocument/dropbox/futuregadgetresearch/sa/eclipse_stm32/yagarto/bin/../lib/gcc/arm-none-eabi/4.6.2/thumb/v7m\libgcc.a(_arm_muldivdf3.o)
 .debug_line    0x00012f89      0x10f e:/mydocument/dropbox/futuregadgetresearch/sa/eclipse_stm32/yagarto/bin/../lib/gcc/arm-none-eabi/4.6.2/thumb/v7m\libgcc.a(_arm_cmpdf2.o)
 .debug_line    0x00013098       0x87 e:/mydocument/dropbox/futuregadgetresearch/sa/eclipse_stm32/yagarto/bin/../lib/gcc/arm-none-eabi/4.6.2/thumb/v7m\libgcc.a(_arm_fixdfsi.o)
 .debug_line    0x0001311f       0x6c e:/mydocument/dropbox/futuregadgetresearch/sa/eclipse_stm32/yagarto/bin/../lib/gcc/arm-none-eabi/4.6.2/thumb/v7m/crtn.o

.debug_info     0x00000000    0x29151
 .debug_info    0x00000000       0x71 e:/mydocument/dropbox/futuregadgetresearch/sa/eclipse_stm32/yagarto/bin/../lib/gcc/arm-none-eabi/4.6.2/thumb/v7m/crti.o
 .debug_info    0x00000071       0xa5 e:/mydocument/dropbox/futuregadgetresearch/sa/eclipse_stm32/yagarto/bin/../lib/gcc/arm-none-eabi/4.6.2/../../../../arm-none-eabi/lib/thumb/v7m/crt0.o
 .debug_info    0x00000116      0x800 src/stm32f4xx_it.o
 .debug_info    0x00000916      0xdb9 src/syscalls.o
 .debug_info    0x000016cf      0x614 src/system_stm32f4xx.o
 .debug_info    0x00001ce3      0x7ee src\Stdout/HalUsart.o
 .debug_info    0x000024d1      0xf96 src\Mpu-9250/HalI2c2.o
 .debug_info    0x00003467      0x622 src\Servo/HalTim.o
 .debug_info    0x00003a89      0x635 src/main.o
 .debug_info    0x000040be      0x59d src/tweak.o
 .debug_info    0x0000465b       0xee src\Stdout/SerialCommand.o
 .debug_info    0x00004749       0x95 src\Adis16488/Adis16488.o
 .debug_info    0x000047de      0xd4f src\Adis16488/HalSpi.o
 .debug_info    0x0000552d       0xce Libraries/CMSIS/Device/ST/STM32F4xx/Source/Templates/gcc_ride7/startup_stm32f4xx.o
 .debug_info    0x000055fb      0x58f Libraries/libstm32f4xx.a(misc.o)
 .debug_info    0x00005b8a      0x7d0 Libraries/libstm32f4xx.a(stm32f4xx_dma.o)
 .debug_info    0x0000635a      0x394 Libraries/libstm32f4xx.a(stm32f4xx_exti.o)
 .debug_info    0x000066ee      0x670 Libraries/libstm32f4xx.a(stm32f4xx_gpio.o)
 .debug_info    0x00006d5e      0xbaa Libraries/libstm32f4xx.a(stm32f4xx_i2c.o)
 .debug_info    0x00007908      0xdf4 Libraries/libstm32f4xx.a(stm32f4xx_rcc.o)
 .debug_info    0x000086fc      0xbfe Libraries/libstm32f4xx.a(stm32f4xx_spi.o)
 .debug_info    0x000092fa     0x246f Libraries/libstm32f4xx.a(stm32f4xx_tim.o)
 .debug_info    0x0000b769      0xa5e Libraries/libstm32f4xx.a(stm32f4xx_usart.o)
 .debug_info    0x0000c1c7      0xcd3 Libraries/libstm32f4xx.a(queue.o)
 .debug_info    0x0000ce9a     0x1606 Libraries/libstm32f4xx.a(tasks.o)
 .debug_info    0x0000e4a0      0x91e Libraries/libstm32f4xx.a(timers.o)
 .debug_info    0x0000edbe      0x33d Libraries/libstm32f4xx.a(port.o)
 .debug_info    0x0000f0fb      0x2af Libraries/libstm32f4xx.a(list.o)
 .debug_info    0x0000f3aa      0x2e3 Libraries/libstm32f4xx.a(heap_2.o)
 .debug_info    0x0000f68d       0xc2 ../../yagarto/bin/../arm-none-eabi/lib/thumb\libc.a(lib_a-atexit.o)
 .debug_info    0x0000f74f      0x964 ../../yagarto/bin/../arm-none-eabi/lib/thumb\libc.a(lib_a-errno.o)
 .debug_info    0x000100b3      0x974 ../../yagarto/bin/../arm-none-eabi/lib/thumb\libc.a(lib_a-exit.o)
 .debug_info    0x00010a27       0xfb ../../yagarto/bin/../arm-none-eabi/lib/thumb\libc.a(lib_a-fini.o)
 .debug_info    0x00010b22      0x966 ../../yagarto/bin/../arm-none-eabi/lib/thumb\libc.a(lib_a-impure.o)
 .debug_info    0x00011488      0x12f ../../yagarto/bin/../arm-none-eabi/lib/thumb\libc.a(lib_a-init.o)
 .debug_info    0x000115b7      0x9a7 ../../yagarto/bin/../arm-none-eabi/lib/thumb\libc.a(lib_a-malloc.o)
 .debug_info    0x00011f5e      0xd6b ../../yagarto/bin/../arm-none-eabi/lib/thumb\libc.a(lib_a-mallocr.o)
 .debug_info    0x00012cc9      0x110 ../../yagarto/bin/../arm-none-eabi/lib/thumb\libc.a(lib_a-memcmp.o)
 .debug_info    0x00012dd9      0x130 ../../yagarto/bin/../arm-none-eabi/lib/thumb\libc.a(lib_a-memcpy.o)
 .debug_info    0x00012f09      0x116 ../../yagarto/bin/../arm-none-eabi/lib/thumb\libc.a(lib_a-memset.o)
 .debug_info    0x0001301f      0x980 ../../yagarto/bin/../arm-none-eabi/lib/thumb\libc.a(lib_a-mlock.o)
 .debug_info    0x0001399f      0xa23 ../../yagarto/bin/../arm-none-eabi/lib/thumb\libc.a(lib_a-printf.o)
 .debug_info    0x000143c2      0x9ac ../../yagarto/bin/../arm-none-eabi/lib/thumb\libc.a(lib_a-sbrkr.o)
 .debug_info    0x00014d6e      0xa62 ../../yagarto/bin/../arm-none-eabi/lib/thumb\libc.a(lib_a-sprintf.o)
 .debug_info    0x000157d0       0xc9 ../../yagarto/bin/../arm-none-eabi/lib/thumb\libc.a(lib_a-strlen.o)
 .debug_info    0x00015899       0xf2 ../../yagarto/bin/../arm-none-eabi/lib/thumb\libc.a(lib_a-strncmp.o)
 .debug_info    0x0001598b     0x1015 ../../yagarto/bin/../arm-none-eabi/lib/thumb\libc.a(lib_a-svfprintf.o)
 .debug_info    0x000169a0     0x1157 ../../yagarto/bin/../arm-none-eabi/lib/thumb\libc.a(lib_a-vfprintf.o)
 .debug_info    0x00017af7      0x992 ../../yagarto/bin/../arm-none-eabi/lib/thumb\libc.a(lib_a-wsetup.o)
 .debug_info    0x00018489      0x9ef ../../yagarto/bin/../arm-none-eabi/lib/thumb\libc.a(lib_a-__atexit.o)
 .debug_info    0x00018e78      0x9fc ../../yagarto/bin/../arm-none-eabi/lib/thumb\libc.a(lib_a-__call_atexit.o)
 .debug_info    0x00019874      0xdce ../../yagarto/bin/../arm-none-eabi/lib/thumb\libc.a(lib_a-dtoa.o)
 .debug_info    0x0001a642      0xaaf ../../yagarto/bin/../arm-none-eabi/lib/thumb\libc.a(lib_a-fflush.o)
 .debug_info    0x0001b0f1      0xbfc ../../yagarto/bin/../arm-none-eabi/lib/thumb\libc.a(lib_a-findfp.o)
 .debug_info    0x0001bced      0xc40 ../../yagarto/bin/../arm-none-eabi/lib/thumb\libc.a(lib_a-freer.o)
 .debug_info    0x0001c92d      0xb3c ../../yagarto/bin/../arm-none-eabi/lib/thumb\libc.a(lib_a-fwalk.o)
 .debug_info    0x0001d469      0xc97 ../../yagarto/bin/../arm-none-eabi/lib/thumb\libc.a(lib_a-locale.o)
 .debug_info    0x0001e100      0xb45 ../../yagarto/bin/../arm-none-eabi/lib/thumb\libc.a(lib_a-makebuf.o)
 .debug_info    0x0001ec45      0x126 ../../yagarto/bin/../arm-none-eabi/lib/thumb\libc.a(lib_a-memchr.o)
 .debug_info    0x0001ed6b     0x14f1 ../../yagarto/bin/../arm-none-eabi/lib/thumb\libc.a(lib_a-mprec.o)
 .debug_info    0x0002025c      0xa64 ../../yagarto/bin/../arm-none-eabi/lib/thumb\libc.a(lib_a-reent.o)
 .debug_info    0x00020cc0      0x13f ../../yagarto/bin/../arm-none-eabi/lib/thumb\libc.a(lib_a-s_fpclassify.o)
 .debug_info    0x00020dff      0xb38 ../../yagarto/bin/../arm-none-eabi/lib/thumb\libc.a(lib_a-stdio.o)
 .debug_info    0x00021937       0xb1 ../../yagarto/bin/../arm-none-eabi/lib/thumb\libc.a(lib_a-strcmp.o)
 .debug_info    0x000219e8      0xd97 ../../yagarto/bin/../arm-none-eabi/lib/thumb\libc.a(lib_a-svfiprintf.o)
 .debug_info    0x0002277f      0xf4c ../../yagarto/bin/../arm-none-eabi/lib/thumb\libc.a(lib_a-vfiprintf.o)
 .debug_info    0x000236cb      0xa48 ../../yagarto/bin/../arm-none-eabi/lib/thumb\libc.a(lib_a-callocr.o)
 .debug_info    0x00024113      0x9cc ../../yagarto/bin/../arm-none-eabi/lib/thumb\libc.a(lib_a-fclose.o)
 .debug_info    0x00024adf      0xaa7 ../../yagarto/bin/../arm-none-eabi/lib/thumb\libc.a(lib_a-fputwc.o)
 .debug_info    0x00025586      0xab3 ../../yagarto/bin/../arm-none-eabi/lib/thumb\libc.a(lib_a-fvwrite.o)
 .debug_info    0x00026039      0x12e ../../yagarto/bin/../arm-none-eabi/lib/thumb\libc.a(lib_a-memmove.o)
 .debug_info    0x00026167      0xc04 ../../yagarto/bin/../arm-none-eabi/lib/thumb\libc.a(lib_a-reallocr.o)
 .debug_info    0x00026d6b      0x9e6 ../../yagarto/bin/../arm-none-eabi/lib/thumb\libc.a(lib_a-wbuf.o)
 .debug_info    0x00027751      0xa99 ../../yagarto/bin/../arm-none-eabi/lib/thumb\libc.a(lib_a-wcrtomb.o)
 .debug_info    0x000281ea      0xa62 ../../yagarto/bin/../arm-none-eabi/lib/thumb\libc.a(lib_a-wctomb_r.o)
 .debug_info    0x00028c4c       0xa8 e:/mydocument/dropbox/futuregadgetresearch/sa/eclipse_stm32/yagarto/bin/../lib/gcc/arm-none-eabi/4.6.2/thumb/v7m\libgcc.a(_udivsi3.o)
 .debug_info    0x00028cf4       0xa8 e:/mydocument/dropbox/futuregadgetresearch/sa/eclipse_stm32/yagarto/bin/../lib/gcc/arm-none-eabi/4.6.2/thumb/v7m\libgcc.a(_divsi3.o)
 .debug_info    0x00028d9c       0xa8 e:/mydocument/dropbox/futuregadgetresearch/sa/eclipse_stm32/yagarto/bin/../lib/gcc/arm-none-eabi/4.6.2/thumb/v7m\libgcc.a(_dvmd_tls.o)
 .debug_info    0x00028e44       0xa7 e:/mydocument/dropbox/futuregadgetresearch/sa/eclipse_stm32/yagarto/bin/../lib/gcc/arm-none-eabi/4.6.2/thumb/v7m\libgcc.a(_arm_addsubdf3.o)
 .debug_info    0x00028eeb       0xa7 e:/mydocument/dropbox/futuregadgetresearch/sa/eclipse_stm32/yagarto/bin/../lib/gcc/arm-none-eabi/4.6.2/thumb/v7m\libgcc.a(_arm_muldivdf3.o)
 .debug_info    0x00028f92       0xa7 e:/mydocument/dropbox/futuregadgetresearch/sa/eclipse_stm32/yagarto/bin/../lib/gcc/arm-none-eabi/4.6.2/thumb/v7m\libgcc.a(_arm_cmpdf2.o)
 .debug_info    0x00029039       0xa7 e:/mydocument/dropbox/futuregadgetresearch/sa/eclipse_stm32/yagarto/bin/../lib/gcc/arm-none-eabi/4.6.2/thumb/v7m\libgcc.a(_arm_fixdfsi.o)
 .debug_info    0x000290e0       0x71 e:/mydocument/dropbox/futuregadgetresearch/sa/eclipse_stm32/yagarto/bin/../lib/gcc/arm-none-eabi/4.6.2/thumb/v7m/crtn.o

.debug_abbrev   0x00000000     0x773a
 .debug_abbrev  0x00000000       0x12 e:/mydocument/dropbox/futuregadgetresearch/sa/eclipse_stm32/yagarto/bin/../lib/gcc/arm-none-eabi/4.6.2/thumb/v7m/crti.o
 .debug_abbrev  0x00000012       0x14 e:/mydocument/dropbox/futuregadgetresearch/sa/eclipse_stm32/yagarto/bin/../lib/gcc/arm-none-eabi/4.6.2/../../../../arm-none-eabi/lib/thumb/v7m/crt0.o
 .debug_abbrev  0x00000026       0xbb src/stm32f4xx_it.o
 .debug_abbrev  0x000000e1      0x22f src/syscalls.o
 .debug_abbrev  0x00000310      0x15b src/system_stm32f4xx.o
 .debug_abbrev  0x0000046b      0x1f1 src\Stdout/HalUsart.o
 .debug_abbrev  0x0000065c      0x22f src\Mpu-9250/HalI2c2.o
 .debug_abbrev  0x0000088b      0x116 src\Servo/HalTim.o
 .debug_abbrev  0x000009a1      0x24c src/main.o
 .debug_abbrev  0x00000bed      0x1da src/tweak.o
 .debug_abbrev  0x00000dc7       0xa6 src\Stdout/SerialCommand.o
 .debug_abbrev  0x00000e6d       0x51 src\Adis16488/Adis16488.o
 .debug_abbrev  0x00000ebe      0x1a2 src\Adis16488/HalSpi.o
 .debug_abbrev  0x00001060       0x12 Libraries/CMSIS/Device/ST/STM32F4xx/Source/Templates/gcc_ride7/startup_stm32f4xx.o
 .debug_abbrev  0x00001072      0x158 Libraries/libstm32f4xx.a(misc.o)
 .debug_abbrev  0x000011ca      0x1af Libraries/libstm32f4xx.a(stm32f4xx_dma.o)
 .debug_abbrev  0x00001379      0x1e1 Libraries/libstm32f4xx.a(stm32f4xx_exti.o)
 .debug_abbrev  0x0000155a      0x1e4 Libraries/libstm32f4xx.a(stm32f4xx_gpio.o)
 .debug_abbrev  0x0000173e      0x1a9 Libraries/libstm32f4xx.a(stm32f4xx_i2c.o)
 .debug_abbrev  0x000018e7      0x28e Libraries/libstm32f4xx.a(stm32f4xx_rcc.o)
 .debug_abbrev  0x00001b75      0x1b2 Libraries/libstm32f4xx.a(stm32f4xx_spi.o)
 .debug_abbrev  0x00001d27      0x251 Libraries/libstm32f4xx.a(stm32f4xx_tim.o)
 .debug_abbrev  0x00001f78      0x1be Libraries/libstm32f4xx.a(stm32f4xx_usart.o)
 .debug_abbrev  0x00002136      0x251 Libraries/libstm32f4xx.a(queue.o)
 .debug_abbrev  0x00002387      0x321 Libraries/libstm32f4xx.a(tasks.o)
 .debug_abbrev  0x000026a8      0x229 Libraries/libstm32f4xx.a(timers.o)
 .debug_abbrev  0x000028d1      0x1d9 Libraries/libstm32f4xx.a(port.o)
 .debug_abbrev  0x00002aaa       0xf2 Libraries/libstm32f4xx.a(list.o)
 .debug_abbrev  0x00002b9c      0x196 Libraries/libstm32f4xx.a(heap_2.o)
 .debug_abbrev  0x00002d32       0x78 ../../yagarto/bin/../arm-none-eabi/lib/thumb\libc.a(lib_a-atexit.o)
 .debug_abbrev  0x00002daa      0x16e ../../yagarto/bin/../arm-none-eabi/lib/thumb\libc.a(lib_a-errno.o)
 .debug_abbrev  0x00002f18      0x17d ../../yagarto/bin/../arm-none-eabi/lib/thumb\libc.a(lib_a-exit.o)
 .debug_abbrev  0x00003095       0x9b ../../yagarto/bin/../arm-none-eabi/lib/thumb\libc.a(lib_a-fini.o)
 .debug_abbrev  0x00003130      0x166 ../../yagarto/bin/../arm-none-eabi/lib/thumb\libc.a(lib_a-impure.o)
 .debug_abbrev  0x00003296       0x9b ../../yagarto/bin/../arm-none-eabi/lib/thumb\libc.a(lib_a-init.o)
 .debug_abbrev  0x00003331      0x196 ../../yagarto/bin/../arm-none-eabi/lib/thumb\libc.a(lib_a-malloc.o)
 .debug_abbrev  0x000034c7      0x233 ../../yagarto/bin/../arm-none-eabi/lib/thumb\libc.a(lib_a-mallocr.o)
 .debug_abbrev  0x000036fa       0x7c ../../yagarto/bin/../arm-none-eabi/lib/thumb\libc.a(lib_a-memcmp.o)
 .debug_abbrev  0x00003776       0x99 ../../yagarto/bin/../arm-none-eabi/lib/thumb\libc.a(lib_a-memcpy.o)
 .debug_abbrev  0x0000380f       0x8d ../../yagarto/bin/../arm-none-eabi/lib/thumb\libc.a(lib_a-memset.o)
 .debug_abbrev  0x0000389c      0x179 ../../yagarto/bin/../arm-none-eabi/lib/thumb\libc.a(lib_a-mlock.o)
 .debug_abbrev  0x00003a15      0x1d7 ../../yagarto/bin/../arm-none-eabi/lib/thumb\libc.a(lib_a-printf.o)
 .debug_abbrev  0x00003bec      0x1b0 ../../yagarto/bin/../arm-none-eabi/lib/thumb\libc.a(lib_a-sbrkr.o)
 .debug_abbrev  0x00003d9c      0x1c8 ../../yagarto/bin/../arm-none-eabi/lib/thumb\libc.a(lib_a-sprintf.o)
 .debug_abbrev  0x00003f64       0x89 ../../yagarto/bin/../arm-none-eabi/lib/thumb\libc.a(lib_a-strlen.o)
 .debug_abbrev  0x00003fed       0x7e ../../yagarto/bin/../arm-none-eabi/lib/thumb\libc.a(lib_a-strncmp.o)
 .debug_abbrev  0x0000406b      0x2ea ../../yagarto/bin/../arm-none-eabi/lib/thumb\libc.a(lib_a-svfprintf.o)
 .debug_abbrev  0x00004355      0x324 ../../yagarto/bin/../arm-none-eabi/lib/thumb\libc.a(lib_a-vfprintf.o)
 .debug_abbrev  0x00004679      0x17f ../../yagarto/bin/../arm-none-eabi/lib/thumb\libc.a(lib_a-wsetup.o)
 .debug_abbrev  0x000047f8      0x1d3 ../../yagarto/bin/../arm-none-eabi/lib/thumb\libc.a(lib_a-__atexit.o)
 .debug_abbrev  0x000049cb      0x1bc ../../yagarto/bin/../arm-none-eabi/lib/thumb\libc.a(lib_a-__call_atexit.o)
 .debug_abbrev  0x00004b87      0x22b ../../yagarto/bin/../arm-none-eabi/lib/thumb\libc.a(lib_a-dtoa.o)
 .debug_abbrev  0x00004db2      0x1fe ../../yagarto/bin/../arm-none-eabi/lib/thumb\libc.a(lib_a-fflush.o)
 .debug_abbrev  0x00004fb0      0x281 ../../yagarto/bin/../arm-none-eabi/lib/thumb\libc.a(lib_a-findfp.o)
 .debug_abbrev  0x00005231      0x1ea ../../yagarto/bin/../arm-none-eabi/lib/thumb\libc.a(lib_a-freer.o)
 .debug_abbrev  0x0000541b      0x207 ../../yagarto/bin/../arm-none-eabi/lib/thumb\libc.a(lib_a-fwalk.o)
 .debug_abbrev  0x00005622      0x245 ../../yagarto/bin/../arm-none-eabi/lib/thumb\libc.a(lib_a-locale.o)
 .debug_abbrev  0x00005867      0x199 ../../yagarto/bin/../arm-none-eabi/lib/thumb\libc.a(lib_a-makebuf.o)
 .debug_abbrev  0x00005a00       0xb7 ../../yagarto/bin/../arm-none-eabi/lib/thumb\libc.a(lib_a-memchr.o)
 .debug_abbrev  0x00005ab7      0x2dc ../../yagarto/bin/../arm-none-eabi/lib/thumb\libc.a(lib_a-mprec.o)
 .debug_abbrev  0x00005d93      0x1e6 ../../yagarto/bin/../arm-none-eabi/lib/thumb\libc.a(lib_a-reent.o)
 .debug_abbrev  0x00005f79       0xc3 ../../yagarto/bin/../arm-none-eabi/lib/thumb\libc.a(lib_a-s_fpclassify.o)
 .debug_abbrev  0x0000603c      0x1e9 ../../yagarto/bin/../arm-none-eabi/lib/thumb\libc.a(lib_a-stdio.o)
 .debug_abbrev  0x00006225       0x6f ../../yagarto/bin/../arm-none-eabi/lib/thumb\libc.a(lib_a-strcmp.o)
 .debug_abbrev  0x00006294      0x262 ../../yagarto/bin/../arm-none-eabi/lib/thumb\libc.a(lib_a-svfiprintf.o)
 .debug_abbrev  0x000064f6      0x304 ../../yagarto/bin/../arm-none-eabi/lib/thumb\libc.a(lib_a-vfiprintf.o)
 .debug_abbrev  0x000067fa      0x1c0 ../../yagarto/bin/../arm-none-eabi/lib/thumb\libc.a(lib_a-callocr.o)
 .debug_abbrev  0x000069ba      0x1b6 ../../yagarto/bin/../arm-none-eabi/lib/thumb\libc.a(lib_a-fclose.o)
 .debug_abbrev  0x00006b70      0x1ec ../../yagarto/bin/../arm-none-eabi/lib/thumb\libc.a(lib_a-fputwc.o)
 .debug_abbrev  0x00006d5c      0x1a5 ../../yagarto/bin/../arm-none-eabi/lib/thumb\libc.a(lib_a-fvwrite.o)
 .debug_abbrev  0x00006f01       0xa8 ../../yagarto/bin/../arm-none-eabi/lib/thumb\libc.a(lib_a-memmove.o)
 .debug_abbrev  0x00006fa9      0x1d2 ../../yagarto/bin/../arm-none-eabi/lib/thumb\libc.a(lib_a-reallocr.o)
 .debug_abbrev  0x0000717b      0x1a7 ../../yagarto/bin/../arm-none-eabi/lib/thumb\libc.a(lib_a-wbuf.o)
 .debug_abbrev  0x00007322      0x1ae ../../yagarto/bin/../arm-none-eabi/lib/thumb\libc.a(lib_a-wcrtomb.o)
 .debug_abbrev  0x000074d0      0x1cc ../../yagarto/bin/../arm-none-eabi/lib/thumb\libc.a(lib_a-wctomb_r.o)
 .debug_abbrev  0x0000769c       0x14 e:/mydocument/dropbox/futuregadgetresearch/sa/eclipse_stm32/yagarto/bin/../lib/gcc/arm-none-eabi/4.6.2/thumb/v7m\libgcc.a(_udivsi3.o)
 .debug_abbrev  0x000076b0       0x14 e:/mydocument/dropbox/futuregadgetresearch/sa/eclipse_stm32/yagarto/bin/../lib/gcc/arm-none-eabi/4.6.2/thumb/v7m\libgcc.a(_divsi3.o)
 .debug_abbrev  0x000076c4       0x14 e:/mydocument/dropbox/futuregadgetresearch/sa/eclipse_stm32/yagarto/bin/../lib/gcc/arm-none-eabi/4.6.2/thumb/v7m\libgcc.a(_dvmd_tls.o)
 .debug_abbrev  0x000076d8       0x14 e:/mydocument/dropbox/futuregadgetresearch/sa/eclipse_stm32/yagarto/bin/../lib/gcc/arm-none-eabi/4.6.2/thumb/v7m\libgcc.a(_arm_addsubdf3.o)
 .debug_abbrev  0x000076ec       0x14 e:/mydocument/dropbox/futuregadgetresearch/sa/eclipse_stm32/yagarto/bin/../lib/gcc/arm-none-eabi/4.6.2/thumb/v7m\libgcc.a(_arm_muldivdf3.o)
 .debug_abbrev  0x00007700       0x14 e:/mydocument/dropbox/futuregadgetresearch/sa/eclipse_stm32/yagarto/bin/../lib/gcc/arm-none-eabi/4.6.2/thumb/v7m\libgcc.a(_arm_cmpdf2.o)
 .debug_abbrev  0x00007714       0x14 e:/mydocument/dropbox/futuregadgetresearch/sa/eclipse_stm32/yagarto/bin/../lib/gcc/arm-none-eabi/4.6.2/thumb/v7m\libgcc.a(_arm_fixdfsi.o)
 .debug_abbrev  0x00007728       0x12 e:/mydocument/dropbox/futuregadgetresearch/sa/eclipse_stm32/yagarto/bin/../lib/gcc/arm-none-eabi/4.6.2/thumb/v7m/crtn.o

.debug_aranges  0x00000000     0x1910
 .debug_aranges
                0x00000000       0x28 e:/mydocument/dropbox/futuregadgetresearch/sa/eclipse_stm32/yagarto/bin/../lib/gcc/arm-none-eabi/4.6.2/thumb/v7m/crti.o
 .debug_aranges
                0x00000028       0x20 e:/mydocument/dropbox/futuregadgetresearch/sa/eclipse_stm32/yagarto/bin/../lib/gcc/arm-none-eabi/4.6.2/../../../../arm-none-eabi/lib/thumb/v7m/crt0.o
 .debug_aranges
                0x00000048      0x2f0 src/stm32f4xx_it.o
 .debug_aranges
                0x00000338       0x50 src/syscalls.o
 .debug_aranges
                0x00000388       0x28 src/system_stm32f4xx.o
 .debug_aranges
                0x000003b0       0x40 src\Stdout/HalUsart.o
 .debug_aranges
                0x000003f0       0x78 src\Mpu-9250/HalI2c2.o
 .debug_aranges
                0x00000468       0x20 src\Servo/HalTim.o
 .debug_aranges
                0x00000488       0x68 src/main.o
 .debug_aranges
                0x000004f0       0x50 src/tweak.o
 .debug_aranges
                0x00000540       0x20 src\Stdout/SerialCommand.o
 .debug_aranges
                0x00000560       0x28 src\Adis16488/HalSpi.o
 .debug_aranges
                0x00000588       0x28 Libraries/CMSIS/Device/ST/STM32F4xx/Source/Templates/gcc_ride7/startup_stm32f4xx.o
 .debug_aranges
                0x000005b0       0x40 Libraries/libstm32f4xx.a(misc.o)
 .debug_aranges
                0x000005f0       0xb0 Libraries/libstm32f4xx.a(stm32f4xx_dma.o)
 .debug_aranges
                0x000006a0       0x58 Libraries/libstm32f4xx.a(stm32f4xx_exti.o)
 .debug_aranges
                0x000006f8       0x88 Libraries/libstm32f4xx.a(stm32f4xx_gpio.o)
 .debug_aranges
                0x00000780      0x120 Libraries/libstm32f4xx.a(stm32f4xx_i2c.o)
 .debug_aranges
                0x000008a0      0x178 Libraries/libstm32f4xx.a(stm32f4xx_rcc.o)
 .debug_aranges
                0x00000a18       0xe0 Libraries/libstm32f4xx.a(stm32f4xx_spi.o)
 .debug_aranges
                0x00000af8      0x2d8 Libraries/libstm32f4xx.a(stm32f4xx_tim.o)
 .debug_aranges
                0x00000dd0      0x100 Libraries/libstm32f4xx.a(stm32f4xx_usart.o)
 .debug_aranges
                0x00000ed0       0xe8 Libraries/libstm32f4xx.a(queue.o)
 .debug_aranges
                0x00000fb8      0x140 Libraries/libstm32f4xx.a(tasks.o)
 .debug_aranges
                0x000010f8       0x60 Libraries/libstm32f4xx.a(timers.o)
 .debug_aranges
                0x00001158       0x98 Libraries/libstm32f4xx.a(port.o)
 .debug_aranges
                0x000011f0       0x40 Libraries/libstm32f4xx.a(list.o)
 .debug_aranges
                0x00001230       0x38 Libraries/libstm32f4xx.a(heap_2.o)
 .debug_aranges
                0x00001268       0x20 ../../yagarto/bin/../arm-none-eabi/lib/thumb\libc.a(lib_a-atexit.o)
 .debug_aranges
                0x00001288       0x20 ../../yagarto/bin/../arm-none-eabi/lib/thumb\libc.a(lib_a-errno.o)
 .debug_aranges
                0x000012a8       0x20 ../../yagarto/bin/../arm-none-eabi/lib/thumb\libc.a(lib_a-exit.o)
 .debug_aranges
                0x000012c8       0x20 ../../yagarto/bin/../arm-none-eabi/lib/thumb\libc.a(lib_a-fini.o)
 .debug_aranges
                0x000012e8       0x20 ../../yagarto/bin/../arm-none-eabi/lib/thumb\libc.a(lib_a-init.o)
 .debug_aranges
                0x00001308       0x20 ../../yagarto/bin/../arm-none-eabi/lib/thumb\libc.a(lib_a-malloc.o)
 .debug_aranges
                0x00001328       0x20 ../../yagarto/bin/../arm-none-eabi/lib/thumb\libc.a(lib_a-mallocr.o)
 .debug_aranges
                0x00001348       0x20 ../../yagarto/bin/../arm-none-eabi/lib/thumb\libc.a(lib_a-memcmp.o)
 .debug_aranges
                0x00001368       0x20 ../../yagarto/bin/../arm-none-eabi/lib/thumb\libc.a(lib_a-memcpy.o)
 .debug_aranges
                0x00001388       0x20 ../../yagarto/bin/../arm-none-eabi/lib/thumb\libc.a(lib_a-memset.o)
 .debug_aranges
                0x000013a8       0x20 ../../yagarto/bin/../arm-none-eabi/lib/thumb\libc.a(lib_a-mlock.o)
 .debug_aranges
                0x000013c8       0x20 ../../yagarto/bin/../arm-none-eabi/lib/thumb\libc.a(lib_a-printf.o)
 .debug_aranges
                0x000013e8       0x20 ../../yagarto/bin/../arm-none-eabi/lib/thumb\libc.a(lib_a-sbrkr.o)
 .debug_aranges
                0x00001408       0x20 ../../yagarto/bin/../arm-none-eabi/lib/thumb\libc.a(lib_a-sprintf.o)
 .debug_aranges
                0x00001428       0x20 ../../yagarto/bin/../arm-none-eabi/lib/thumb\libc.a(lib_a-strlen.o)
 .debug_aranges
                0x00001448       0x20 ../../yagarto/bin/../arm-none-eabi/lib/thumb\libc.a(lib_a-strncmp.o)
 .debug_aranges
                0x00001468       0x20 ../../yagarto/bin/../arm-none-eabi/lib/thumb\libc.a(lib_a-svfprintf.o)
 .debug_aranges
                0x00001488       0x20 ../../yagarto/bin/../arm-none-eabi/lib/thumb\libc.a(lib_a-vfprintf.o)
 .debug_aranges
                0x000014a8       0x20 ../../yagarto/bin/../arm-none-eabi/lib/thumb\libc.a(lib_a-wsetup.o)
 .debug_aranges
                0x000014c8       0x20 ../../yagarto/bin/../arm-none-eabi/lib/thumb\libc.a(lib_a-__atexit.o)
 .debug_aranges
                0x000014e8       0x20 ../../yagarto/bin/../arm-none-eabi/lib/thumb\libc.a(lib_a-__call_atexit.o)
 .debug_aranges
                0x00001508       0x20 ../../yagarto/bin/../arm-none-eabi/lib/thumb\libc.a(lib_a-dtoa.o)
 .debug_aranges
                0x00001528       0x20 ../../yagarto/bin/../arm-none-eabi/lib/thumb\libc.a(lib_a-fflush.o)
 .debug_aranges
                0x00001548       0x20 ../../yagarto/bin/../arm-none-eabi/lib/thumb\libc.a(lib_a-findfp.o)
 .debug_aranges
                0x00001568       0x20 ../../yagarto/bin/../arm-none-eabi/lib/thumb\libc.a(lib_a-freer.o)
 .debug_aranges
                0x00001588       0x20 ../../yagarto/bin/../arm-none-eabi/lib/thumb\libc.a(lib_a-fwalk.o)
 .debug_aranges
                0x000015a8       0x20 ../../yagarto/bin/../arm-none-eabi/lib/thumb\libc.a(lib_a-locale.o)
 .debug_aranges
                0x000015c8       0x20 ../../yagarto/bin/../arm-none-eabi/lib/thumb\libc.a(lib_a-makebuf.o)
 .debug_aranges
                0x000015e8       0x20 ../../yagarto/bin/../arm-none-eabi/lib/thumb\libc.a(lib_a-memchr.o)
 .debug_aranges
                0x00001608       0x20 ../../yagarto/bin/../arm-none-eabi/lib/thumb\libc.a(lib_a-mprec.o)
 .debug_aranges
                0x00001628       0x20 ../../yagarto/bin/../arm-none-eabi/lib/thumb\libc.a(lib_a-reent.o)
 .debug_aranges
                0x00001648       0x20 ../../yagarto/bin/../arm-none-eabi/lib/thumb\libc.a(lib_a-s_fpclassify.o)
 .debug_aranges
                0x00001668       0x20 ../../yagarto/bin/../arm-none-eabi/lib/thumb\libc.a(lib_a-stdio.o)
 .debug_aranges
                0x00001688       0x20 ../../yagarto/bin/../arm-none-eabi/lib/thumb\libc.a(lib_a-strcmp.o)
 .debug_aranges
                0x000016a8       0x20 ../../yagarto/bin/../arm-none-eabi/lib/thumb\libc.a(lib_a-svfiprintf.o)
 .debug_aranges
                0x000016c8       0x20 ../../yagarto/bin/../arm-none-eabi/lib/thumb\libc.a(lib_a-vfiprintf.o)
 .debug_aranges
                0x000016e8       0x20 ../../yagarto/bin/../arm-none-eabi/lib/thumb\libc.a(lib_a-callocr.o)
 .debug_aranges
                0x00001708       0x20 ../../yagarto/bin/../arm-none-eabi/lib/thumb\libc.a(lib_a-fclose.o)
 .debug_aranges
                0x00001728       0x20 ../../yagarto/bin/../arm-none-eabi/lib/thumb\libc.a(lib_a-fputwc.o)
 .debug_aranges
                0x00001748       0x20 ../../yagarto/bin/../arm-none-eabi/lib/thumb\libc.a(lib_a-fvwrite.o)
 .debug_aranges
                0x00001768       0x20 ../../yagarto/bin/../arm-none-eabi/lib/thumb\libc.a(lib_a-memmove.o)
 .debug_aranges
                0x00001788       0x20 ../../yagarto/bin/../arm-none-eabi/lib/thumb\libc.a(lib_a-reallocr.o)
 .debug_aranges
                0x000017a8       0x20 ../../yagarto/bin/../arm-none-eabi/lib/thumb\libc.a(lib_a-wbuf.o)
 .debug_aranges
                0x000017c8       0x20 ../../yagarto/bin/../arm-none-eabi/lib/thumb\libc.a(lib_a-wcrtomb.o)
 .debug_aranges
                0x000017e8       0x20 ../../yagarto/bin/../arm-none-eabi/lib/thumb\libc.a(lib_a-wctomb_r.o)
 .debug_aranges
                0x00001808       0x20 e:/mydocument/dropbox/futuregadgetresearch/sa/eclipse_stm32/yagarto/bin/../lib/gcc/arm-none-eabi/4.6.2/thumb/v7m\libgcc.a(_udivsi3.o)
 .debug_aranges
                0x00001828       0x20 e:/mydocument/dropbox/futuregadgetresearch/sa/eclipse_stm32/yagarto/bin/../lib/gcc/arm-none-eabi/4.6.2/thumb/v7m\libgcc.a(_divsi3.o)
 .debug_aranges
                0x00001848       0x20 e:/mydocument/dropbox/futuregadgetresearch/sa/eclipse_stm32/yagarto/bin/../lib/gcc/arm-none-eabi/4.6.2/thumb/v7m\libgcc.a(_dvmd_tls.o)
 .debug_aranges
                0x00001868       0x20 e:/mydocument/dropbox/futuregadgetresearch/sa/eclipse_stm32/yagarto/bin/../lib/gcc/arm-none-eabi/4.6.2/thumb/v7m\libgcc.a(_arm_addsubdf3.o)
 .debug_aranges
                0x00001888       0x20 e:/mydocument/dropbox/futuregadgetresearch/sa/eclipse_stm32/yagarto/bin/../lib/gcc/arm-none-eabi/4.6.2/thumb/v7m\libgcc.a(_arm_muldivdf3.o)
 .debug_aranges
                0x000018a8       0x20 e:/mydocument/dropbox/futuregadgetresearch/sa/eclipse_stm32/yagarto/bin/../lib/gcc/arm-none-eabi/4.6.2/thumb/v7m\libgcc.a(_arm_cmpdf2.o)
 .debug_aranges
                0x000018c8       0x20 e:/mydocument/dropbox/futuregadgetresearch/sa/eclipse_stm32/yagarto/bin/../lib/gcc/arm-none-eabi/4.6.2/thumb/v7m\libgcc.a(_arm_fixdfsi.o)
 .debug_aranges
                0x000018e8       0x28 e:/mydocument/dropbox/futuregadgetresearch/sa/eclipse_stm32/yagarto/bin/../lib/gcc/arm-none-eabi/4.6.2/thumb/v7m/crtn.o

.debug_ranges   0x00000000     0x2878
 .debug_ranges  0x00000000       0x20 e:/mydocument/dropbox/futuregadgetresearch/sa/eclipse_stm32/yagarto/bin/../lib/gcc/arm-none-eabi/4.6.2/thumb/v7m/crti.o
 .debug_ranges  0x00000020      0x2e0 src/stm32f4xx_it.o
 .debug_ranges  0x00000300       0x40 src/syscalls.o
 .debug_ranges  0x00000340       0x60 src/system_stm32f4xx.o
 .debug_ranges  0x000003a0       0x78 src\Stdout/HalUsart.o
 .debug_ranges  0x00000418       0xa0 src\Mpu-9250/HalI2c2.o
 .debug_ranges  0x000004b8       0x28 src\Servo/HalTim.o
 .debug_ranges  0x000004e0       0x70 src/main.o
 .debug_ranges  0x00000550       0x40 src/tweak.o
 .debug_ranges  0x00000590       0x10 src\Stdout/SerialCommand.o
 .debug_ranges  0x000005a0       0x30 src\Adis16488/HalSpi.o
 .debug_ranges  0x000005d0       0x20 Libraries/CMSIS/Device/ST/STM32F4xx/Source/Templates/gcc_ride7/startup_stm32f4xx.o
 .debug_ranges  0x000005f0       0x50 Libraries/libstm32f4xx.a(misc.o)
 .debug_ranges  0x00000640       0xd8 Libraries/libstm32f4xx.a(stm32f4xx_dma.o)
 .debug_ranges  0x00000718       0x68 Libraries/libstm32f4xx.a(stm32f4xx_exti.o)
 .debug_ranges  0x00000780       0xa8 Libraries/libstm32f4xx.a(stm32f4xx_gpio.o)
 .debug_ranges  0x00000828      0x148 Libraries/libstm32f4xx.a(stm32f4xx_i2c.o)
 .debug_ranges  0x00000970      0x1c8 Libraries/libstm32f4xx.a(stm32f4xx_rcc.o)
 .debug_ranges  0x00000b38      0x108 Libraries/libstm32f4xx.a(stm32f4xx_spi.o)
 .debug_ranges  0x00000c40      0x438 Libraries/libstm32f4xx.a(stm32f4xx_tim.o)
 .debug_ranges  0x00001078      0x170 Libraries/libstm32f4xx.a(stm32f4xx_usart.o)
 .debug_ranges  0x000011e8      0x370 Libraries/libstm32f4xx.a(queue.o)
 .debug_ranges  0x00001558      0x758 Libraries/libstm32f4xx.a(tasks.o)
 .debug_ranges  0x00001cb0      0x248 Libraries/libstm32f4xx.a(timers.o)
 .debug_ranges  0x00001ef8       0xa8 Libraries/libstm32f4xx.a(port.o)
 .debug_ranges  0x00001fa0       0x78 Libraries/libstm32f4xx.a(list.o)
 .debug_ranges  0x00002018       0xc0 Libraries/libstm32f4xx.a(heap_2.o)
 .debug_ranges  0x000020d8       0x60 ../../yagarto/bin/../arm-none-eabi/lib/thumb\libc.a(lib_a-mallocr.o)
 .debug_ranges  0x00002138      0x180 ../../yagarto/bin/../arm-none-eabi/lib/thumb\libc.a(lib_a-svfprintf.o)
 .debug_ranges  0x000022b8      0x1e8 ../../yagarto/bin/../arm-none-eabi/lib/thumb\libc.a(lib_a-vfprintf.o)
 .debug_ranges  0x000024a0       0x38 ../../yagarto/bin/../arm-none-eabi/lib/thumb\libc.a(lib_a-__call_atexit.o)
 .debug_ranges  0x000024d8       0x78 ../../yagarto/bin/../arm-none-eabi/lib/thumb\libc.a(lib_a-fflush.o)
 .debug_ranges  0x00002550       0x40 ../../yagarto/bin/../arm-none-eabi/lib/thumb\libc.a(lib_a-mprec.o)
 .debug_ranges  0x00002590       0x18 ../../yagarto/bin/../arm-none-eabi/lib/thumb\libc.a(lib_a-s_fpclassify.o)
 .debug_ranges  0x000025a8       0x40 ../../yagarto/bin/../arm-none-eabi/lib/thumb\libc.a(lib_a-svfiprintf.o)
 .debug_ranges  0x000025e8       0xb0 ../../yagarto/bin/../arm-none-eabi/lib/thumb\libc.a(lib_a-vfiprintf.o)
 .debug_ranges  0x00002698       0x30 ../../yagarto/bin/../arm-none-eabi/lib/thumb\libc.a(lib_a-callocr.o)
 .debug_ranges  0x000026c8       0x30 ../../yagarto/bin/../arm-none-eabi/lib/thumb\libc.a(lib_a-fputwc.o)
 .debug_ranges  0x000026f8       0x18 ../../yagarto/bin/../arm-none-eabi/lib/thumb\libc.a(lib_a-fvwrite.o)
 .debug_ranges  0x00002710      0x148 ../../yagarto/bin/../arm-none-eabi/lib/thumb\libc.a(lib_a-reallocr.o)
 .debug_ranges  0x00002858       0x20 e:/mydocument/dropbox/futuregadgetresearch/sa/eclipse_stm32/yagarto/bin/../lib/gcc/arm-none-eabi/4.6.2/thumb/v7m/crtn.o

.comment        0x00000000       0x11
 .comment       0x00000000       0x11 e:/mydocument/dropbox/futuregadgetresearch/sa/eclipse_stm32/yagarto/bin/../lib/gcc/arm-none-eabi/4.6.2/thumb/v7m/crtbegin.o
                                 0x12 (size before relaxing)
 .comment       0x00000000       0x12 src/stm32f4xx_it.o
 .comment       0x00000000       0x12 src/syscalls.o
 .comment       0x00000000       0x12 src/system_stm32f4xx.o
 .comment       0x00000000       0x12 src\Stdout/HalUsart.o
 .comment       0x00000000       0x12 src\Mpu-9250/HalI2c2.o
 .comment       0x00000000       0x12 src\Servo/HalTim.o
 .comment       0x00000000       0x12 src/main.o
 .comment       0x00000000       0x12 src/tweak.o
 .comment       0x00000000       0x12 src\Stdout/SerialCommand.o
 .comment       0x00000000       0x12 src\Adis16488/Adis16488.o
 .comment       0x00000000       0x12 src\Adis16488/HalSpi.o
 .comment       0x00000000       0x12 Libraries/libstm32f4xx.a(misc.o)
 .comment       0x00000000       0x12 Libraries/libstm32f4xx.a(stm32f4xx_dma.o)
 .comment       0x00000000       0x12 Libraries/libstm32f4xx.a(stm32f4xx_exti.o)
 .comment       0x00000000       0x12 Libraries/libstm32f4xx.a(stm32f4xx_gpio.o)
 .comment       0x00000000       0x12 Libraries/libstm32f4xx.a(stm32f4xx_i2c.o)
 .comment       0x00000000       0x12 Libraries/libstm32f4xx.a(stm32f4xx_rcc.o)
 .comment       0x00000000       0x12 Libraries/libstm32f4xx.a(stm32f4xx_spi.o)
 .comment       0x00000000       0x12 Libraries/libstm32f4xx.a(stm32f4xx_tim.o)
 .comment       0x00000000       0x12 Libraries/libstm32f4xx.a(stm32f4xx_usart.o)
 .comment       0x00000000       0x12 Libraries/libstm32f4xx.a(queue.o)
 .comment       0x00000000       0x12 Libraries/libstm32f4xx.a(tasks.o)
 .comment       0x00000000       0x12 Libraries/libstm32f4xx.a(timers.o)
 .comment       0x00000000       0x12 Libraries/libstm32f4xx.a(port.o)
 .comment       0x00000000       0x12 Libraries/libstm32f4xx.a(list.o)
 .comment       0x00000000       0x12 Libraries/libstm32f4xx.a(heap_2.o)
 .comment       0x00000000       0x12 ../../yagarto/bin/../arm-none-eabi/lib/thumb\libc.a(lib_a-atexit.o)
 .comment       0x00000000       0x12 ../../yagarto/bin/../arm-none-eabi/lib/thumb\libc.a(lib_a-errno.o)
 .comment       0x00000000       0x12 ../../yagarto/bin/../arm-none-eabi/lib/thumb\libc.a(lib_a-exit.o)
 .comment       0x00000000       0x12 ../../yagarto/bin/../arm-none-eabi/lib/thumb\libc.a(lib_a-fini.o)
 .comment       0x00000000       0x12 ../../yagarto/bin/../arm-none-eabi/lib/thumb\libc.a(lib_a-impure.o)
 .comment       0x00000000       0x12 ../../yagarto/bin/../arm-none-eabi/lib/thumb\libc.a(lib_a-init.o)
 .comment       0x00000000       0x12 ../../yagarto/bin/../arm-none-eabi/lib/thumb\libc.a(lib_a-malloc.o)
 .comment       0x00000000       0x12 ../../yagarto/bin/../arm-none-eabi/lib/thumb\libc.a(lib_a-mallocr.o)
 .comment       0x00000000       0x12 ../../yagarto/bin/../arm-none-eabi/lib/thumb\libc.a(lib_a-memcmp.o)
 .comment       0x00000000       0x12 ../../yagarto/bin/../arm-none-eabi/lib/thumb\libc.a(lib_a-memcpy.o)
 .comment       0x00000000       0x12 ../../yagarto/bin/../arm-none-eabi/lib/thumb\libc.a(lib_a-memset.o)
 .comment       0x00000000       0x12 ../../yagarto/bin/../arm-none-eabi/lib/thumb\libc.a(lib_a-mlock.o)
 .comment       0x00000000       0x12 ../../yagarto/bin/../arm-none-eabi/lib/thumb\libc.a(lib_a-printf.o)
 .comment       0x00000000       0x12 ../../yagarto/bin/../arm-none-eabi/lib/thumb\libc.a(lib_a-sbrkr.o)
 .comment       0x00000000       0x12 ../../yagarto/bin/../arm-none-eabi/lib/thumb\libc.a(lib_a-sprintf.o)
 .comment       0x00000000       0x12 ../../yagarto/bin/../arm-none-eabi/lib/thumb\libc.a(lib_a-strlen.o)
 .comment       0x00000000       0x12 ../../yagarto/bin/../arm-none-eabi/lib/thumb\libc.a(lib_a-strncmp.o)
 .comment       0x00000000       0x12 ../../yagarto/bin/../arm-none-eabi/lib/thumb\libc.a(lib_a-svfprintf.o)
 .comment       0x00000000       0x12 ../../yagarto/bin/../arm-none-eabi/lib/thumb\libc.a(lib_a-vfprintf.o)
 .comment       0x00000000       0x12 ../../yagarto/bin/../arm-none-eabi/lib/thumb\libc.a(lib_a-wsetup.o)
 .comment       0x00000000       0x12 ../../yagarto/bin/../arm-none-eabi/lib/thumb\libc.a(lib_a-__atexit.o)
 .comment       0x00000000       0x12 ../../yagarto/bin/../arm-none-eabi/lib/thumb\libc.a(lib_a-__call_atexit.o)
 .comment       0x00000000       0x12 ../../yagarto/bin/../arm-none-eabi/lib/thumb\libc.a(lib_a-dtoa.o)
 .comment       0x00000000       0x12 ../../yagarto/bin/../arm-none-eabi/lib/thumb\libc.a(lib_a-fflush.o)
 .comment       0x00000000       0x12 ../../yagarto/bin/../arm-none-eabi/lib/thumb\libc.a(lib_a-findfp.o)
 .comment       0x00000000       0x12 ../../yagarto/bin/../arm-none-eabi/lib/thumb\libc.a(lib_a-freer.o)
 .comment       0x00000000       0x12 ../../yagarto/bin/../arm-none-eabi/lib/thumb\libc.a(lib_a-fwalk.o)
 .comment       0x00000000       0x12 ../../yagarto/bin/../arm-none-eabi/lib/thumb\libc.a(lib_a-locale.o)
 .comment       0x00000000       0x12 ../../yagarto/bin/../arm-none-eabi/lib/thumb\libc.a(lib_a-makebuf.o)
 .comment       0x00000000       0x12 ../../yagarto/bin/../arm-none-eabi/lib/thumb\libc.a(lib_a-memchr.o)
 .comment       0x00000000       0x12 ../../yagarto/bin/../arm-none-eabi/lib/thumb\libc.a(lib_a-mprec.o)
 .comment       0x00000000       0x12 ../../yagarto/bin/../arm-none-eabi/lib/thumb\libc.a(lib_a-reent.o)
 .comment       0x00000000       0x12 ../../yagarto/bin/../arm-none-eabi/lib/thumb\libc.a(lib_a-s_fpclassify.o)
 .comment       0x00000000       0x12 ../../yagarto/bin/../arm-none-eabi/lib/thumb\libc.a(lib_a-stdio.o)
 .comment       0x00000000       0x12 ../../yagarto/bin/../arm-none-eabi/lib/thumb\libc.a(lib_a-strcmp.o)
 .comment       0x00000000       0x12 ../../yagarto/bin/../arm-none-eabi/lib/thumb\libc.a(lib_a-svfiprintf.o)
 .comment       0x00000000       0x12 ../../yagarto/bin/../arm-none-eabi/lib/thumb\libc.a(lib_a-vfiprintf.o)
 .comment       0x00000000       0x12 ../../yagarto/bin/../arm-none-eabi/lib/thumb\libc.a(lib_a-callocr.o)
 .comment       0x00000000       0x12 ../../yagarto/bin/../arm-none-eabi/lib/thumb\libc.a(lib_a-fclose.o)
 .comment       0x00000000       0x12 ../../yagarto/bin/../arm-none-eabi/lib/thumb\libc.a(lib_a-fputwc.o)
 .comment       0x00000000       0x12 ../../yagarto/bin/../arm-none-eabi/lib/thumb\libc.a(lib_a-fvwrite.o)
 .comment       0x00000000       0x12 ../../yagarto/bin/../arm-none-eabi/lib/thumb\libc.a(lib_a-memmove.o)
 .comment       0x00000000       0x12 ../../yagarto/bin/../arm-none-eabi/lib/thumb\libc.a(lib_a-reallocr.o)
 .comment       0x00000000       0x12 ../../yagarto/bin/../arm-none-eabi/lib/thumb\libc.a(lib_a-wbuf.o)
 .comment       0x00000000       0x12 ../../yagarto/bin/../arm-none-eabi/lib/thumb\libc.a(lib_a-wcrtomb.o)
 .comment       0x00000000       0x12 ../../yagarto/bin/../arm-none-eabi/lib/thumb\libc.a(lib_a-wctomb_r.o)
 .comment       0x00000000       0x12 e:/mydocument/dropbox/futuregadgetresearch/sa/eclipse_stm32/yagarto/bin/../lib/gcc/arm-none-eabi/4.6.2/thumb/v7m/crtend.o

.debug_loc      0x00000000    0x17528
 .debug_loc     0x00000000       0x60 src/stm32f4xx_it.o
 .debug_loc     0x00000060      0x128 src/syscalls.o
 .debug_loc     0x00000188      0x160 src/system_stm32f4xx.o
 .debug_loc     0x000002e8      0x25d src\Stdout/HalUsart.o
 .debug_loc     0x00000545      0x455 src\Mpu-9250/HalI2c2.o
 .debug_loc     0x0000099a       0x2c src\Servo/HalTim.o
 .debug_loc     0x000009c6      0x109 src/main.o
 .debug_loc     0x00000acf       0x5f src/tweak.o
 .debug_loc     0x00000b2e       0x3e src\Stdout/SerialCommand.o
 .debug_loc     0x00000b6c       0x89 src\Adis16488/HalSpi.o
 .debug_loc     0x00000bf5      0x130 Libraries/libstm32f4xx.a(misc.o)
 .debug_loc     0x00000d25      0x391 Libraries/libstm32f4xx.a(stm32f4xx_dma.o)
 .debug_loc     0x000010b6      0x192 Libraries/libstm32f4xx.a(stm32f4xx_exti.o)
 .debug_loc     0x00001248      0x2ac Libraries/libstm32f4xx.a(stm32f4xx_gpio.o)
 .debug_loc     0x000014f4      0x63c Libraries/libstm32f4xx.a(stm32f4xx_i2c.o)
 .debug_loc     0x00001b30      0x7dd Libraries/libstm32f4xx.a(stm32f4xx_rcc.o)
 .debug_loc     0x0000230d      0x583 Libraries/libstm32f4xx.a(stm32f4xx_spi.o)
 .debug_loc     0x00002890     0x18ea Libraries/libstm32f4xx.a(stm32f4xx_tim.o)
 .debug_loc     0x0000417a      0x66a Libraries/libstm32f4xx.a(stm32f4xx_usart.o)
 .debug_loc     0x000047e4      0xf66 Libraries/libstm32f4xx.a(queue.o)
 .debug_loc     0x0000574a     0x1592 Libraries/libstm32f4xx.a(tasks.o)
 .debug_loc     0x00006cdc      0x708 Libraries/libstm32f4xx.a(timers.o)
 .debug_loc     0x000073e4      0x225 Libraries/libstm32f4xx.a(port.o)
 .debug_loc     0x00007609       0xbd Libraries/libstm32f4xx.a(list.o)
 .debug_loc     0x000076c6      0x1fa Libraries/libstm32f4xx.a(heap_2.o)
 .debug_loc     0x000078c0       0x3e ../../yagarto/bin/../arm-none-eabi/lib/thumb\libc.a(lib_a-atexit.o)
 .debug_loc     0x000078fe       0x3e ../../yagarto/bin/../arm-none-eabi/lib/thumb\libc.a(lib_a-exit.o)
 .debug_loc     0x0000793c       0x5e ../../yagarto/bin/../arm-none-eabi/lib/thumb\libc.a(lib_a-fini.o)
 .debug_loc     0x0000799a       0x74 ../../yagarto/bin/../arm-none-eabi/lib/thumb\libc.a(lib_a-init.o)
 .debug_loc     0x00007a0e       0x7c ../../yagarto/bin/../arm-none-eabi/lib/thumb\libc.a(lib_a-malloc.o)
 .debug_loc     0x00007a8a      0xa9c ../../yagarto/bin/../arm-none-eabi/lib/thumb\libc.a(lib_a-mallocr.o)
 .debug_loc     0x00008526      0x10a ../../yagarto/bin/../arm-none-eabi/lib/thumb\libc.a(lib_a-memcmp.o)
 .debug_loc     0x00008630      0x1a0 ../../yagarto/bin/../arm-none-eabi/lib/thumb\libc.a(lib_a-memcpy.o)
 .debug_loc     0x000087d0      0x1fc ../../yagarto/bin/../arm-none-eabi/lib/thumb\libc.a(lib_a-memset.o)
 .debug_loc     0x000089cc       0x97 ../../yagarto/bin/../arm-none-eabi/lib/thumb\libc.a(lib_a-printf.o)
 .debug_loc     0x00008a63       0x5c ../../yagarto/bin/../arm-none-eabi/lib/thumb\libc.a(lib_a-sbrkr.o)
 .debug_loc     0x00008abf       0xce ../../yagarto/bin/../arm-none-eabi/lib/thumb\libc.a(lib_a-sprintf.o)
 .debug_loc     0x00008b8d       0x13 ../../yagarto/bin/../arm-none-eabi/lib/thumb\libc.a(lib_a-strlen.o)
 .debug_loc     0x00008ba0      0x14b ../../yagarto/bin/../arm-none-eabi/lib/thumb\libc.a(lib_a-strncmp.o)
 .debug_loc     0x00008ceb     0x22f4 ../../yagarto/bin/../arm-none-eabi/lib/thumb\libc.a(lib_a-svfprintf.o)
 .debug_loc     0x0000afdf     0x27af ../../yagarto/bin/../arm-none-eabi/lib/thumb\libc.a(lib_a-vfprintf.o)
 .debug_loc     0x0000d78e       0x72 ../../yagarto/bin/../arm-none-eabi/lib/thumb\libc.a(lib_a-wsetup.o)
 .debug_loc     0x0000d800      0x13f ../../yagarto/bin/../arm-none-eabi/lib/thumb\libc.a(lib_a-__atexit.o)
 .debug_loc     0x0000d93f      0x235 ../../yagarto/bin/../arm-none-eabi/lib/thumb\libc.a(lib_a-__call_atexit.o)
 .debug_loc     0x0000db74     0x1e8e ../../yagarto/bin/../arm-none-eabi/lib/thumb\libc.a(lib_a-dtoa.o)
 .debug_loc     0x0000fa02      0x257 ../../yagarto/bin/../arm-none-eabi/lib/thumb\libc.a(lib_a-fflush.o)
 .debug_loc     0x0000fc59      0x2d3 ../../yagarto/bin/../arm-none-eabi/lib/thumb\libc.a(lib_a-findfp.o)
 .debug_loc     0x0000ff2c      0x3b8 ../../yagarto/bin/../arm-none-eabi/lib/thumb\libc.a(lib_a-freer.o)
 .debug_loc     0x000102e4      0x2a4 ../../yagarto/bin/../arm-none-eabi/lib/thumb\libc.a(lib_a-fwalk.o)
 .debug_loc     0x00010588       0xde ../../yagarto/bin/../arm-none-eabi/lib/thumb\libc.a(lib_a-locale.o)
 .debug_loc     0x00010666      0x150 ../../yagarto/bin/../arm-none-eabi/lib/thumb\libc.a(lib_a-makebuf.o)
 .debug_loc     0x000107b6      0x182 ../../yagarto/bin/../arm-none-eabi/lib/thumb\libc.a(lib_a-memchr.o)
 .debug_loc     0x00010938     0x1a6b ../../yagarto/bin/../arm-none-eabi/lib/thumb\libc.a(lib_a-mprec.o)
 .debug_loc     0x000123a3      0x1fe ../../yagarto/bin/../arm-none-eabi/lib/thumb\libc.a(lib_a-reent.o)
 .debug_loc     0x000125a1       0xaa ../../yagarto/bin/../arm-none-eabi/lib/thumb\libc.a(lib_a-s_fpclassify.o)
 .debug_loc     0x0001264b      0x213 ../../yagarto/bin/../arm-none-eabi/lib/thumb\libc.a(lib_a-stdio.o)
 .debug_loc     0x0001285e       0x13 ../../yagarto/bin/../arm-none-eabi/lib/thumb\libc.a(lib_a-strcmp.o)
 .debug_loc     0x00012871     0x1722 ../../yagarto/bin/../arm-none-eabi/lib/thumb\libc.a(lib_a-svfiprintf.o)
 .debug_loc     0x00013f93     0x1697 ../../yagarto/bin/../arm-none-eabi/lib/thumb\libc.a(lib_a-vfiprintf.o)
 .debug_loc     0x0001562a      0x195 ../../yagarto/bin/../arm-none-eabi/lib/thumb\libc.a(lib_a-callocr.o)
 .debug_loc     0x000157bf       0xd9 ../../yagarto/bin/../arm-none-eabi/lib/thumb\libc.a(lib_a-fclose.o)
 .debug_loc     0x00015898      0x1d4 ../../yagarto/bin/../arm-none-eabi/lib/thumb\libc.a(lib_a-fputwc.o)
 .debug_loc     0x00015a6c      0x641 ../../yagarto/bin/../arm-none-eabi/lib/thumb\libc.a(lib_a-fvwrite.o)
 .debug_loc     0x000160ad      0x1d6 ../../yagarto/bin/../arm-none-eabi/lib/thumb\libc.a(lib_a-memmove.o)
 .debug_loc     0x00016283      0xe12 ../../yagarto/bin/../arm-none-eabi/lib/thumb\libc.a(lib_a-reallocr.o)
 .debug_loc     0x00017095      0x14d ../../yagarto/bin/../arm-none-eabi/lib/thumb\libc.a(lib_a-wbuf.o)
 .debug_loc     0x000171e2      0x227 ../../yagarto/bin/../arm-none-eabi/lib/thumb\libc.a(lib_a-wcrtomb.o)
 .debug_loc     0x00017409      0x11f ../../yagarto/bin/../arm-none-eabi/lib/thumb\libc.a(lib_a-wctomb_r.o)

.debug_macinfo  0x00000000   0x70ad31
 .debug_macinfo
                0x00000000    0x5d736 src/stm32f4xx_it.o
 .debug_macinfo
                0x0005d736    0x5cbfb src/syscalls.o
 .debug_macinfo
                0x000ba331    0x59df0 src/system_stm32f4xx.o
 .debug_macinfo
                0x00114121    0x5feaa src\Stdout/HalUsart.o
 .debug_macinfo
                0x00173fcb    0x60360 src\Mpu-9250/HalI2c2.o
 .debug_macinfo
                0x001d432b    0x5fe50 src\Servo/HalTim.o
 .debug_macinfo
                0x0023417b    0x61a8a src/main.o
 .debug_macinfo
                0x00295c05     0x4aca src/tweak.o
 .debug_macinfo
                0x0029a6cf    0x5ff78 src\Stdout/SerialCommand.o
 .debug_macinfo
                0x002fa647    0x5fe3f src\Adis16488/Adis16488.o
 .debug_macinfo
                0x0035a486    0x5fe66 src\Adis16488/HalSpi.o
 .debug_macinfo
                0x003ba2ec    0x59dda Libraries/libstm32f4xx.a(misc.o)
 .debug_macinfo
                0x004140c6    0x5a0ee Libraries/libstm32f4xx.a(stm32f4xx_dma.o)
 .debug_macinfo
                0x0046e1b4    0x59dd2 Libraries/libstm32f4xx.a(stm32f4xx_exti.o)
 .debug_macinfo
                0x004c7f86    0x59dae Libraries/libstm32f4xx.a(stm32f4xx_gpio.o)
 .debug_macinfo
                0x00521d34    0x59e18 Libraries/libstm32f4xx.a(stm32f4xx_i2c.o)
 .debug_macinfo
                0x0057bb4c    0x5a2bb Libraries/libstm32f4xx.a(stm32f4xx_rcc.o)
 .debug_macinfo
                0x005d5e07    0x59e9b Libraries/libstm32f4xx.a(stm32f4xx_spi.o)
 .debug_macinfo
                0x0062fca2    0x59e87 Libraries/libstm32f4xx.a(stm32f4xx_tim.o)
 .debug_macinfo
                0x00689b29    0x59eda Libraries/libstm32f4xx.a(stm32f4xx_usart.o)
 .debug_macinfo
                0x006e3a03     0x7039 Libraries/libstm32f4xx.a(queue.o)
 .debug_macinfo
                0x006eaa3c     0x7f9d Libraries/libstm32f4xx.a(tasks.o)
 .debug_macinfo
                0x006f29d9     0x7349 Libraries/libstm32f4xx.a(timers.o)
 .debug_macinfo
                0x006f9d22     0x4cae Libraries/libstm32f4xx.a(port.o)
 .debug_macinfo
                0x006fe9d0     0x5ebe Libraries/libstm32f4xx.a(list.o)
 .debug_macinfo
                0x0070488e     0x64a3 Libraries/libstm32f4xx.a(heap_2.o)

.debug_str      0x00000000     0x71bc
 .debug_str     0x00000000      0x7af src/stm32f4xx_it.o
                                0x86b (size before relaxing)
 .debug_str     0x000007af      0x4e6 src/syscalls.o
                                0x681 (size before relaxing)
 .debug_str     0x00000c95      0x1bc src/system_stm32f4xx.o
                                0x377 (size before relaxing)
 .debug_str     0x00000e51      0x480 src\Stdout/HalUsart.o
                                0x6d0 (size before relaxing)
 .debug_str     0x000012d1      0x90a src\Mpu-9250/HalI2c2.o
                                0xedf (size before relaxing)
 .debug_str     0x00001bdb      0x1bb src\Servo/HalTim.o
                                0x58e (size before relaxing)
 .debug_str     0x00001d96      0x24a src/main.o
                                0x607 (size before relaxing)
 .debug_str     0x00001fe0      0x17a src/tweak.o
                                0x2b7 (size before relaxing)
 .debug_str     0x0000215a       0x4b src\Stdout/SerialCommand.o
                                0x153 (size before relaxing)
 .debug_str     0x000021a5       0x1c src\Adis16488/Adis16488.o
                                0x11f (size before relaxing)
 .debug_str     0x000021c1      0x228 src\Adis16488/HalSpi.o
                                0xdc2 (size before relaxing)
 .debug_str     0x000023e9      0x12b Libraries/libstm32f4xx.a(misc.o)
                                0x3c8 (size before relaxing)
 .debug_str     0x00002514      0x271 Libraries/libstm32f4xx.a(stm32f4xx_dma.o)
                                0x546 (size before relaxing)
 .debug_str     0x00002785       0xf2 Libraries/libstm32f4xx.a(stm32f4xx_exti.o)
                                0x37e (size before relaxing)
 .debug_str     0x00002877      0x194 Libraries/libstm32f4xx.a(stm32f4xx_gpio.o)
                                0x4e6 (size before relaxing)
 .debug_str     0x00002a0b      0x3a0 Libraries/libstm32f4xx.a(stm32f4xx_i2c.o)
                                0x66c (size before relaxing)
 .debug_str     0x00002dab      0x4ed Libraries/libstm32f4xx.a(stm32f4xx_rcc.o)
                                0x845 (size before relaxing)
 .debug_str     0x00003298      0x2e9 Libraries/libstm32f4xx.a(stm32f4xx_spi.o)
                                0x68f (size before relaxing)
 .debug_str     0x00003581      0x9f2 Libraries/libstm32f4xx.a(stm32f4xx_tim.o)
                                0xdfb (size before relaxing)
 .debug_str     0x00003f73      0x39c Libraries/libstm32f4xx.a(stm32f4xx_usart.o)
                                0x6a5 (size before relaxing)
 .debug_str     0x0000430f      0x533 Libraries/libstm32f4xx.a(queue.o)
                                0x686 (size before relaxing)
 .debug_str     0x00004842      0x8cc Libraries/libstm32f4xx.a(tasks.o)
                                0xb32 (size before relaxing)
 .debug_str     0x0000510e      0x34a Libraries/libstm32f4xx.a(timers.o)
                                0x551 (size before relaxing)
 .debug_str     0x00005458      0x2b1 Libraries/libstm32f4xx.a(port.o)
                                0x3eb (size before relaxing)
 .debug_str     0x00005709       0xb0 Libraries/libstm32f4xx.a(list.o)
                                0x243 (size before relaxing)
 .debug_str     0x000057b9      0x169 Libraries/libstm32f4xx.a(heap_2.o)
                                0x2a8 (size before relaxing)
 .debug_str     0x00005922       0xc5 ../../yagarto/bin/../arm-none-eabi/lib/thumb\libc.a(lib_a-atexit.o)
                                0x155 (size before relaxing)
 .debug_str     0x000059e7       0x8e ../../yagarto/bin/../arm-none-eabi/lib/thumb\libc.a(lib_a-errno.o)
                                0x4de (size before relaxing)
 .debug_str     0x00005a75       0x52 ../../yagarto/bin/../arm-none-eabi/lib/thumb\libc.a(lib_a-exit.o)
                                0x4e8 (size before relaxing)
 .debug_str     0x00005ac7       0xb9 ../../yagarto/bin/../arm-none-eabi/lib/thumb\libc.a(lib_a-fini.o)
                                0x15b (size before relaxing)
 .debug_str     0x00005b80       0x93 ../../yagarto/bin/../arm-none-eabi/lib/thumb\libc.a(lib_a-impure.o)
                                0x4f6 (size before relaxing)
 .debug_str     0x00005c13       0x98 ../../yagarto/bin/../arm-none-eabi/lib/thumb\libc.a(lib_a-init.o)
                                0x185 (size before relaxing)
 .debug_str     0x00005cab       0x48 ../../yagarto/bin/../arm-none-eabi/lib/thumb\libc.a(lib_a-malloc.o)
                                0x4f8 (size before relaxing)
 .debug_str     0x00005cf3      0x209 ../../yagarto/bin/../arm-none-eabi/lib/thumb\libc.a(lib_a-mallocr.o)
                                0x6cd (size before relaxing)
 .debug_str     0x00005efc       0x90 ../../yagarto/bin/../arm-none-eabi/lib/thumb\libc.a(lib_a-memcmp.o)
                                0x12c (size before relaxing)
 .debug_str     0x00005f8c       0x6a ../../yagarto/bin/../arm-none-eabi/lib/thumb\libc.a(lib_a-memcpy.o)
                                0x153 (size before relaxing)
 .debug_str     0x00005ff6       0x57 ../../yagarto/bin/../arm-none-eabi/lib/thumb\libc.a(lib_a-memset.o)
                                0x140 (size before relaxing)
 .debug_str     0x0000604d       0x6e ../../yagarto/bin/../arm-none-eabi/lib/thumb\libc.a(lib_a-mlock.o)
                                0x4ff (size before relaxing)
 .debug_str     0x000060bb       0xaf ../../yagarto/bin/../arm-none-eabi/lib/thumb\libc.a(lib_a-printf.o)
                                0x50e (size before relaxing)
 .debug_str     0x0000616a       0x42 ../../yagarto/bin/../arm-none-eabi/lib/thumb\libc.a(lib_a-sbrkr.o)
                                0x4ed (size before relaxing)
 .debug_str     0x000061ac       0x4f ../../yagarto/bin/../arm-none-eabi/lib/thumb\libc.a(lib_a-sprintf.o)
                                0x516 (size before relaxing)
 .debug_str     0x000061fb       0xa5 ../../yagarto/bin/../arm-none-eabi/lib/thumb\libc.a(lib_a-strlen.o)
                                0x141 (size before relaxing)
 .debug_str     0x000062a0       0x45 ../../yagarto/bin/../arm-none-eabi/lib/thumb\libc.a(lib_a-strncmp.o)
                                0x12e (size before relaxing)
 .debug_str     0x000062e5      0x1b2 ../../yagarto/bin/../arm-none-eabi/lib/thumb\libc.a(lib_a-svfprintf.o)
                                0x6c1 (size before relaxing)
 .debug_str     0x00006497       0x2a ../../yagarto/bin/../arm-none-eabi/lib/thumb\libc.a(lib_a-vfprintf.o)
                                0x6f1 (size before relaxing)
 .debug_str     0x000064c1       0x47 ../../yagarto/bin/../arm-none-eabi/lib/thumb\libc.a(lib_a-wsetup.o)
                                0x4e8 (size before relaxing)
 .debug_str     0x00006508       0x60 ../../yagarto/bin/../arm-none-eabi/lib/thumb\libc.a(lib_a-__atexit.o)
                                0x53e (size before relaxing)
 .debug_str     0x00006568       0x62 ../../yagarto/bin/../arm-none-eabi/lib/thumb\libc.a(lib_a-__call_atexit.o)
                                0x510 (size before relaxing)
 .debug_str     0x000065ca      0x103 ../../yagarto/bin/../arm-none-eabi/lib/thumb\libc.a(lib_a-dtoa.o)
                                0x5dd (size before relaxing)
 .debug_str     0x000066cd       0x5d ../../yagarto/bin/../arm-none-eabi/lib/thumb\libc.a(lib_a-fflush.o)
                                0x518 (size before relaxing)
 .debug_str     0x0000672a      0x103 ../../yagarto/bin/../arm-none-eabi/lib/thumb\libc.a(lib_a-findfp.o)
                                0x5d0 (size before relaxing)
 .debug_str     0x0000682d       0x3c ../../yagarto/bin/../arm-none-eabi/lib/thumb\libc.a(lib_a-freer.o)
                                0x61f (size before relaxing)
 .debug_str     0x00006869       0x5f ../../yagarto/bin/../arm-none-eabi/lib/thumb\libc.a(lib_a-fwalk.o)
                                0x511 (size before relaxing)
 .debug_str     0x000068c8      0x264 ../../yagarto/bin/../arm-none-eabi/lib/thumb\libc.a(lib_a-locale.o)
                                0x74c (size before relaxing)
 .debug_str     0x00006b2c       0x54 ../../yagarto/bin/../arm-none-eabi/lib/thumb\libc.a(lib_a-makebuf.o)
                                0x5e2 (size before relaxing)
 .debug_str     0x00006b80       0x51 ../../yagarto/bin/../arm-none-eabi/lib/thumb\libc.a(lib_a-memchr.o)
                                0x146 (size before relaxing)
 .debug_str     0x00006bd1       0xf9 ../../yagarto/bin/../arm-none-eabi/lib/thumb\libc.a(lib_a-mprec.o)
                                0x5ea (size before relaxing)
 .debug_str     0x00006cca       0x74 ../../yagarto/bin/../arm-none-eabi/lib/thumb\libc.a(lib_a-reent.o)
                                0x51b (size before relaxing)
 .debug_str     0x00006d3e       0xbf ../../yagarto/bin/../arm-none-eabi/lib/thumb\libc.a(lib_a-s_fpclassify.o)
                                0x17e (size before relaxing)
 .debug_str     0x00006dfd       0x6e ../../yagarto/bin/../arm-none-eabi/lib/thumb\libc.a(lib_a-stdio.o)
                                0x51d (size before relaxing)
 .debug_str     0x00006e6b       0x4b ../../yagarto/bin/../arm-none-eabi/lib/thumb\libc.a(lib_a-strcmp.o)
                                0x132 (size before relaxing)
 .debug_str     0x00006eb6       0x29 ../../yagarto/bin/../arm-none-eabi/lib/thumb\libc.a(lib_a-svfiprintf.o)
                                0x634 (size before relaxing)
 .debug_str     0x00006edf       0x22 ../../yagarto/bin/../arm-none-eabi/lib/thumb\libc.a(lib_a-vfiprintf.o)
                                0x65d (size before relaxing)
 .debug_str     0x00006f01       0x19 ../../yagarto/bin/../arm-none-eabi/lib/thumb\libc.a(lib_a-callocr.o)
                                0x51e (size before relaxing)
 .debug_str     0x00006f1a       0x4c ../../yagarto/bin/../arm-none-eabi/lib/thumb\libc.a(lib_a-fclose.o)
                                0x4f2 (size before relaxing)
 .debug_str     0x00006f66       0x4e ../../yagarto/bin/../arm-none-eabi/lib/thumb\libc.a(lib_a-fputwc.o)
                                0x505 (size before relaxing)
 .debug_str     0x00006fb4       0x58 ../../yagarto/bin/../arm-none-eabi/lib/thumb\libc.a(lib_a-fvwrite.o)
                                0x53f (size before relaxing)
 .debug_str     0x0000700c       0x4e ../../yagarto/bin/../arm-none-eabi/lib/thumb\libc.a(lib_a-memmove.o)
                                0x15f (size before relaxing)
 .debug_str     0x0000705a       0x59 ../../yagarto/bin/../arm-none-eabi/lib/thumb\libc.a(lib_a-reallocr.o)
                                0x59f (size before relaxing)
 .debug_str     0x000070b3       0x4b ../../yagarto/bin/../arm-none-eabi/lib/thumb\libc.a(lib_a-wbuf.o)
                                0x4ec (size before relaxing)
 .debug_str     0x000070fe       0x60 ../../yagarto/bin/../arm-none-eabi/lib/thumb\libc.a(lib_a-wcrtomb.o)
                                0x516 (size before relaxing)
 .debug_str     0x0000715e       0x5e ../../yagarto/bin/../arm-none-eabi/lib/thumb\libc.a(lib_a-wctomb_r.o)
                                0x525 (size before relaxing)

.debug_frame    0x00000000     0x369c
 .debug_frame   0x00000000      0x5d8 src/stm32f4xx_it.o
 .debug_frame   0x000005d8       0x9c src/syscalls.o
 .debug_frame   0x00000674       0x34 src/system_stm32f4xx.o
 .debug_frame   0x000006a8       0xa0 src\Stdout/HalUsart.o
 .debug_frame   0x00000748      0x160 src\Mpu-9250/HalI2c2.o
 .debug_frame   0x000008a8       0x30 src\Servo/HalTim.o
 .debug_frame   0x000008d8       0xd8 src/main.o
 .debug_frame   0x000009b0       0x80 src/tweak.o
 .debug_frame   0x00000a30       0x28 src\Stdout/SerialCommand.o
 .debug_frame   0x00000a58       0x54 src\Adis16488/HalSpi.o
 .debug_frame   0x00000aac       0x68 Libraries/libstm32f4xx.a(misc.o)
 .debug_frame   0x00000b14      0x178 Libraries/libstm32f4xx.a(stm32f4xx_dma.o)
 .debug_frame   0x00000c8c       0x9c Libraries/libstm32f4xx.a(stm32f4xx_exti.o)
 .debug_frame   0x00000d28      0x118 Libraries/libstm32f4xx.a(stm32f4xx_gpio.o)
 .debug_frame   0x00000e40      0x240 Libraries/libstm32f4xx.a(stm32f4xx_i2c.o)
 .debug_frame   0x00001080      0x2e4 Libraries/libstm32f4xx.a(stm32f4xx_rcc.o)
 .debug_frame   0x00001364      0x1e0 Libraries/libstm32f4xx.a(stm32f4xx_spi.o)
 .debug_frame   0x00001544      0x64c Libraries/libstm32f4xx.a(stm32f4xx_tim.o)
 .debug_frame   0x00001b90      0x210 Libraries/libstm32f4xx.a(stm32f4xx_usart.o)
 .debug_frame   0x00001da0      0x2b8 Libraries/libstm32f4xx.a(queue.o)
 .debug_frame   0x00002058      0x3e4 Libraries/libstm32f4xx.a(tasks.o)
 .debug_frame   0x0000243c      0x118 Libraries/libstm32f4xx.a(timers.o)
 .debug_frame   0x00002554      0x144 Libraries/libstm32f4xx.a(port.o)
 .debug_frame   0x00002698       0x78 Libraries/libstm32f4xx.a(list.o)
 .debug_frame   0x00002710       0x68 Libraries/libstm32f4xx.a(heap_2.o)
 .debug_frame   0x00002778       0x28 ../../yagarto/bin/../arm-none-eabi/lib/thumb\libc.a(lib_a-atexit.o)
 .debug_frame   0x000027a0       0x20 ../../yagarto/bin/../arm-none-eabi/lib/thumb\libc.a(lib_a-errno.o)
 .debug_frame   0x000027c0       0x28 ../../yagarto/bin/../arm-none-eabi/lib/thumb\libc.a(lib_a-exit.o)
 .debug_frame   0x000027e8       0x2c ../../yagarto/bin/../arm-none-eabi/lib/thumb\libc.a(lib_a-fini.o)
 .debug_frame   0x00002814       0x2c ../../yagarto/bin/../arm-none-eabi/lib/thumb\libc.a(lib_a-init.o)
 .debug_frame   0x00002840       0x40 ../../yagarto/bin/../arm-none-eabi/lib/thumb\libc.a(lib_a-malloc.o)
 .debug_frame   0x00002880       0x3c ../../yagarto/bin/../arm-none-eabi/lib/thumb\libc.a(lib_a-mallocr.o)
 .debug_frame   0x000028bc       0x2c ../../yagarto/bin/../arm-none-eabi/lib/thumb\libc.a(lib_a-memcmp.o)
 .debug_frame   0x000028e8       0x30 ../../yagarto/bin/../arm-none-eabi/lib/thumb\libc.a(lib_a-memcpy.o)
 .debug_frame   0x00002918       0x2c ../../yagarto/bin/../arm-none-eabi/lib/thumb\libc.a(lib_a-memset.o)
 .debug_frame   0x00002944       0x30 ../../yagarto/bin/../arm-none-eabi/lib/thumb\libc.a(lib_a-mlock.o)
 .debug_frame   0x00002974       0x48 ../../yagarto/bin/../arm-none-eabi/lib/thumb\libc.a(lib_a-printf.o)
 .debug_frame   0x000029bc       0x2c ../../yagarto/bin/../arm-none-eabi/lib/thumb\libc.a(lib_a-sbrkr.o)
 .debug_frame   0x000029e8       0x50 ../../yagarto/bin/../arm-none-eabi/lib/thumb\libc.a(lib_a-sprintf.o)
 .debug_frame   0x00002a38       0x20 ../../yagarto/bin/../arm-none-eabi/lib/thumb\libc.a(lib_a-strlen.o)
 .debug_frame   0x00002a58       0x30 ../../yagarto/bin/../arm-none-eabi/lib/thumb\libc.a(lib_a-strncmp.o)
 .debug_frame   0x00002a88       0x3c ../../yagarto/bin/../arm-none-eabi/lib/thumb\libc.a(lib_a-svfprintf.o)
 .debug_frame   0x00002ac4       0x58 ../../yagarto/bin/../arm-none-eabi/lib/thumb\libc.a(lib_a-vfprintf.o)
 .debug_frame   0x00002b1c       0x2c ../../yagarto/bin/../arm-none-eabi/lib/thumb\libc.a(lib_a-wsetup.o)
 .debug_frame   0x00002b48       0x38 ../../yagarto/bin/../arm-none-eabi/lib/thumb\libc.a(lib_a-__atexit.o)
 .debug_frame   0x00002b80       0x3c ../../yagarto/bin/../arm-none-eabi/lib/thumb\libc.a(lib_a-__call_atexit.o)
 .debug_frame   0x00002bbc       0x68 ../../yagarto/bin/../arm-none-eabi/lib/thumb\libc.a(lib_a-dtoa.o)
 .debug_frame   0x00002c24       0x48 ../../yagarto/bin/../arm-none-eabi/lib/thumb\libc.a(lib_a-fflush.o)
 .debug_frame   0x00002c6c      0x13c ../../yagarto/bin/../arm-none-eabi/lib/thumb\libc.a(lib_a-findfp.o)
 .debug_frame   0x00002da8       0x54 ../../yagarto/bin/../arm-none-eabi/lib/thumb\libc.a(lib_a-freer.o)
 .debug_frame   0x00002dfc       0x5c ../../yagarto/bin/../arm-none-eabi/lib/thumb\libc.a(lib_a-fwalk.o)
 .debug_frame   0x00002e58       0xa4 ../../yagarto/bin/../arm-none-eabi/lib/thumb\libc.a(lib_a-locale.o)
 .debug_frame   0x00002efc       0x30 ../../yagarto/bin/../arm-none-eabi/lib/thumb\libc.a(lib_a-makebuf.o)
 .debug_frame   0x00002f2c       0x30 ../../yagarto/bin/../arm-none-eabi/lib/thumb\libc.a(lib_a-memchr.o)
 .debug_frame   0x00002f5c      0x278 ../../yagarto/bin/../arm-none-eabi/lib/thumb\libc.a(lib_a-mprec.o)
 .debug_frame   0x000031d4       0x68 ../../yagarto/bin/../arm-none-eabi/lib/thumb\libc.a(lib_a-reent.o)
 .debug_frame   0x0000323c       0x2c ../../yagarto/bin/../arm-none-eabi/lib/thumb\libc.a(lib_a-s_fpclassify.o)
 .debug_frame   0x00003268       0x90 ../../yagarto/bin/../arm-none-eabi/lib/thumb\libc.a(lib_a-stdio.o)
 .debug_frame   0x000032f8       0x20 ../../yagarto/bin/../arm-none-eabi/lib/thumb\libc.a(lib_a-strcmp.o)
 .debug_frame   0x00003318       0x68 ../../yagarto/bin/../arm-none-eabi/lib/thumb\libc.a(lib_a-svfiprintf.o)
 .debug_frame   0x00003380       0x80 ../../yagarto/bin/../arm-none-eabi/lib/thumb\libc.a(lib_a-vfiprintf.o)
 .debug_frame   0x00003400       0x28 ../../yagarto/bin/../arm-none-eabi/lib/thumb\libc.a(lib_a-callocr.o)
 .debug_frame   0x00003428       0x44 ../../yagarto/bin/../arm-none-eabi/lib/thumb\libc.a(lib_a-fclose.o)
 .debug_frame   0x0000346c       0x54 ../../yagarto/bin/../arm-none-eabi/lib/thumb\libc.a(lib_a-fputwc.o)
 .debug_frame   0x000034c0       0x3c ../../yagarto/bin/../arm-none-eabi/lib/thumb\libc.a(lib_a-fvwrite.o)
 .debug_frame   0x000034fc       0x30 ../../yagarto/bin/../arm-none-eabi/lib/thumb\libc.a(lib_a-memmove.o)
 .debug_frame   0x0000352c       0x3c ../../yagarto/bin/../arm-none-eabi/lib/thumb\libc.a(lib_a-reallocr.o)
 .debug_frame   0x00003568       0x44 ../../yagarto/bin/../arm-none-eabi/lib/thumb\libc.a(lib_a-wbuf.o)
 .debug_frame   0x000035ac       0x60 ../../yagarto/bin/../arm-none-eabi/lib/thumb\libc.a(lib_a-wcrtomb.o)
 .debug_frame   0x0000360c       0x50 ../../yagarto/bin/../arm-none-eabi/lib/thumb\libc.a(lib_a-wctomb_r.o)
 .debug_frame   0x0000365c       0x20 e:/mydocument/dropbox/futuregadgetresearch/sa/eclipse_stm32/yagarto/bin/../lib/gcc/arm-none-eabi/4.6.2/thumb/v7m\libgcc.a(_udivsi3.o)
 .debug_frame   0x0000367c       0x20 e:/mydocument/dropbox/futuregadgetresearch/sa/eclipse_stm32/yagarto/bin/../lib/gcc/arm-none-eabi/4.6.2/thumb/v7m\libgcc.a(_divsi3.o)

Cross Reference Table

Symbol                                            File
ADC_IRQHandler                                    src/stm32f4xx_it.o
AHBPrescTable                                     src/system_stm32f4xx.o
BusFault_Handler                                  src/stm32f4xx_it.o
CAN1_RX0_IRQHandler                               src/stm32f4xx_it.o
CAN1_RX1_IRQHandler                               src/stm32f4xx_it.o
CAN1_SCE_IRQHandler                               src/stm32f4xx_it.o
CAN1_TX_IRQHandler                                src/stm32f4xx_it.o
CAN2_RX0_IRQHandler                               src/stm32f4xx_it.o
CAN2_RX1_IRQHandler                               src/stm32f4xx_it.o
CAN2_SCE_IRQHandler                               src/stm32f4xx_it.o
CAN2_TX_IRQHandler                                src/stm32f4xx_it.o
CRYP_IRQHandler                                   src/stm32f4xx_it.o
Count                                             src/main.o
DCMI_IRQHandler                                   src/stm32f4xx_it.o
DMA1_Stream0_IRQHandler                           src/stm32f4xx_it.o
DMA1_Stream1_IRQHandler                           src/stm32f4xx_it.o
DMA1_Stream2_IRQHandler                           src/stm32f4xx_it.o
DMA1_Stream3_IRQHandler                           src/stm32f4xx_it.o
DMA1_Stream4_IRQHandler                           src/stm32f4xx_it.o
DMA1_Stream5_IRQHandler                           src/stm32f4xx_it.o
DMA1_Stream6_IRQHandler                           src/stm32f4xx_it.o
DMA1_Stream7_IRQHandler                           src/stm32f4xx_it.o
DMA2_Stream0_IRQHandler                           src/stm32f4xx_it.o
DMA2_Stream1_IRQHandler                           src/stm32f4xx_it.o
DMA2_Stream2_IRQHandler                           src/stm32f4xx_it.o
DMA2_Stream3_IRQHandler                           src/stm32f4xx_it.o
DMA2_Stream4_IRQHandler                           src/stm32f4xx_it.o
DMA2_Stream5_IRQHandler                           src/stm32f4xx_it.o
DMA2_Stream6_IRQHandler                           src/stm32f4xx_it.o
DMA2_Stream7_IRQHandler                           src/stm32f4xx_it.o
DMA_ClearFlag                                     Libraries/libstm32f4xx.a(stm32f4xx_dma.o)
                                                  src\Adis16488/HalSpi.o
                                                  src\Stdout/HalUsart.o
DMA_ClearITPendingBit                             Libraries/libstm32f4xx.a(stm32f4xx_dma.o)
                                                  src\Mpu-9250/HalI2c2.o
DMA_Cmd                                           Libraries/libstm32f4xx.a(stm32f4xx_dma.o)
                                                  src\Adis16488/HalSpi.o
                                                  src\Mpu-9250/HalI2c2.o
                                                  src\Stdout/HalUsart.o
DMA_DeInit                                        Libraries/libstm32f4xx.a(stm32f4xx_dma.o)
DMA_DoubleBufferModeCmd                           Libraries/libstm32f4xx.a(stm32f4xx_dma.o)
DMA_DoubleBufferModeConfig                        Libraries/libstm32f4xx.a(stm32f4xx_dma.o)
DMA_FlowControllerConfig                          Libraries/libstm32f4xx.a(stm32f4xx_dma.o)
DMA_GetCmdStatus                                  Libraries/libstm32f4xx.a(stm32f4xx_dma.o)
                                                  src\Stdout/HalUsart.o
DMA_GetCurrDataCounter                            Libraries/libstm32f4xx.a(stm32f4xx_dma.o)
DMA_GetCurrentMemoryTarget                        Libraries/libstm32f4xx.a(stm32f4xx_dma.o)
DMA_GetFIFOStatus                                 Libraries/libstm32f4xx.a(stm32f4xx_dma.o)
DMA_GetFlagStatus                                 Libraries/libstm32f4xx.a(stm32f4xx_dma.o)
DMA_GetITStatus                                   Libraries/libstm32f4xx.a(stm32f4xx_dma.o)
                                                  src\Mpu-9250/HalI2c2.o
DMA_ITConfig                                      Libraries/libstm32f4xx.a(stm32f4xx_dma.o)
                                                  src\Mpu-9250/HalI2c2.o
DMA_Init                                          Libraries/libstm32f4xx.a(stm32f4xx_dma.o)
                                                  src\Adis16488/HalSpi.o
                                                  src\Mpu-9250/HalI2c2.o
                                                  src\Stdout/HalUsart.o
DMA_MemoryTargetConfig                            Libraries/libstm32f4xx.a(stm32f4xx_dma.o)
DMA_PeriphIncOffsetSizeConfig                     Libraries/libstm32f4xx.a(stm32f4xx_dma.o)
DMA_SetCurrDataCounter                            Libraries/libstm32f4xx.a(stm32f4xx_dma.o)
                                                  src\Adis16488/HalSpi.o
                                                  src\Mpu-9250/HalI2c2.o
                                                  src\Stdout/HalUsart.o
DMA_StructInit                                    Libraries/libstm32f4xx.a(stm32f4xx_dma.o)
                                                  src\Adis16488/HalSpi.o
                                                  src\Mpu-9250/HalI2c2.o
                                                  src\Stdout/HalUsart.o
DebugMon_Handler                                  src/stm32f4xx_it.o
Default_Handler                                   Libraries/CMSIS/Device/ST/STM32F4xx/Source/Templates/gcc_ride7/startup_stm32f4xx.o
Delay(unsigned long)                              src/main.o
Delay2(unsigned long)                             src/main.o
ETH_IRQHandler                                    src/stm32f4xx_it.o
ETH_WKUP_IRQHandler                               src/stm32f4xx_it.o
EXTI0_IRQHandler                                  src/stm32f4xx_it.o
EXTI15_10_IRQHandler                              src/stm32f4xx_it.o
EXTI1_IRQHandler                                  src/stm32f4xx_it.o
EXTI2_IRQHandler                                  src/stm32f4xx_it.o
EXTI3_IRQHandler                                  src/stm32f4xx_it.o
EXTI4_IRQHandler                                  src/stm32f4xx_it.o
EXTI9_5_IRQHandler                                src/stm32f4xx_it.o
EXTI_ClearFlag                                    Libraries/libstm32f4xx.a(stm32f4xx_exti.o)
EXTI_ClearITPendingBit                            Libraries/libstm32f4xx.a(stm32f4xx_exti.o)
                                                  src/stm32f4xx_it.o
EXTI_DeInit                                       Libraries/libstm32f4xx.a(stm32f4xx_exti.o)
EXTI_GenerateSWInterrupt                          Libraries/libstm32f4xx.a(stm32f4xx_exti.o)
EXTI_GetFlagStatus                                Libraries/libstm32f4xx.a(stm32f4xx_exti.o)
EXTI_GetITStatus                                  Libraries/libstm32f4xx.a(stm32f4xx_exti.o)
                                                  src/stm32f4xx_it.o
EXTI_Init                                         Libraries/libstm32f4xx.a(stm32f4xx_exti.o)
                                                  src\Adis16488/HalSpi.o
EXTI_StructInit                                   Libraries/libstm32f4xx.a(stm32f4xx_exti.o)
                                                  src\Adis16488/HalSpi.o
FLASH_IRQHandler                                  src/stm32f4xx_it.o
FPU_IRQHandler                                    src/stm32f4xx_it.o
FSMC_IRQHandler                                   src/stm32f4xx_it.o
GPIO_Configuration()                              src/main.o
GPIO_DeInit                                       Libraries/libstm32f4xx.a(stm32f4xx_gpio.o)
GPIO_Init                                         Libraries/libstm32f4xx.a(stm32f4xx_gpio.o)
                                                  src\Adis16488/HalSpi.o
                                                  src/main.o
                                                  src\Servo/HalTim.o
                                                  src\Mpu-9250/HalI2c2.o
                                                  src\Stdout/HalUsart.o
GPIO_PinAFConfig                                  Libraries/libstm32f4xx.a(stm32f4xx_gpio.o)
                                                  src\Adis16488/HalSpi.o
                                                  src\Servo/HalTim.o
                                                  src\Mpu-9250/HalI2c2.o
                                                  src\Stdout/HalUsart.o
GPIO_PinLockConfig                                Libraries/libstm32f4xx.a(stm32f4xx_gpio.o)
GPIO_ReadInputData                                Libraries/libstm32f4xx.a(stm32f4xx_gpio.o)
GPIO_ReadInputDataBit                             Libraries/libstm32f4xx.a(stm32f4xx_gpio.o)
GPIO_ReadOutputData                               Libraries/libstm32f4xx.a(stm32f4xx_gpio.o)
GPIO_ReadOutputDataBit                            Libraries/libstm32f4xx.a(stm32f4xx_gpio.o)
GPIO_ResetBits                                    Libraries/libstm32f4xx.a(stm32f4xx_gpio.o)
GPIO_SetBits                                      Libraries/libstm32f4xx.a(stm32f4xx_gpio.o)
GPIO_StructInit                                   Libraries/libstm32f4xx.a(stm32f4xx_gpio.o)
                                                  src\Adis16488/HalSpi.o
                                                  src\Servo/HalTim.o
                                                  src\Mpu-9250/HalI2c2.o
                                                  src\Stdout/HalUsart.o
GPIO_ToggleBits                                   Libraries/libstm32f4xx.a(stm32f4xx_gpio.o)
GPIO_Write                                        Libraries/libstm32f4xx.a(stm32f4xx_gpio.o)
                                                  src/main.o
GPIO_WriteBit                                     Libraries/libstm32f4xx.a(stm32f4xx_gpio.o)
HASH_RNG_IRQHandler                               src/stm32f4xx_it.o
HardFault_Handler                                 src/stm32f4xx_it.o
I2C1_ER_IRQHandler                                src/stm32f4xx_it.o
I2C1_EV_IRQHandler                                src/stm32f4xx_it.o
I2C2_ER_IRQHandler                                src/stm32f4xx_it.o
I2C2_EV_IRQHandler                                src/stm32f4xx_it.o
I2C3_ER_IRQHandler                                src/stm32f4xx_it.o
I2C3_EV_IRQHandler                                src/stm32f4xx_it.o
I2C_ARPCmd                                        Libraries/libstm32f4xx.a(stm32f4xx_i2c.o)
I2C_AcknowledgeConfig                             Libraries/libstm32f4xx.a(stm32f4xx_i2c.o)
                                                  src\Mpu-9250/HalI2c2.o
I2C_CalculatePEC                                  Libraries/libstm32f4xx.a(stm32f4xx_i2c.o)
I2C_CheckEvent                                    Libraries/libstm32f4xx.a(stm32f4xx_i2c.o)
I2C_ClearFlag                                     Libraries/libstm32f4xx.a(stm32f4xx_i2c.o)
I2C_ClearITPendingBit                             Libraries/libstm32f4xx.a(stm32f4xx_i2c.o)
                                                  src\Mpu-9250/HalI2c2.o
I2C_Cmd                                           Libraries/libstm32f4xx.a(stm32f4xx_i2c.o)
                                                  src\Mpu-9250/HalI2c2.o
I2C_DMACmd                                        Libraries/libstm32f4xx.a(stm32f4xx_i2c.o)
                                                  src\Mpu-9250/HalI2c2.o
I2C_DMALastTransferCmd                            Libraries/libstm32f4xx.a(stm32f4xx_i2c.o)
                                                  src\Mpu-9250/HalI2c2.o
I2C_DeInit                                        Libraries/libstm32f4xx.a(stm32f4xx_i2c.o)
I2C_DualAddressCmd                                Libraries/libstm32f4xx.a(stm32f4xx_i2c.o)
I2C_FastModeDutyCycleConfig                       Libraries/libstm32f4xx.a(stm32f4xx_i2c.o)
I2C_GeneralCallCmd                                Libraries/libstm32f4xx.a(stm32f4xx_i2c.o)
I2C_GenerateSTART                                 Libraries/libstm32f4xx.a(stm32f4xx_i2c.o)
                                                  src\Mpu-9250/HalI2c2.o
I2C_GenerateSTOP                                  Libraries/libstm32f4xx.a(stm32f4xx_i2c.o)
                                                  src\Mpu-9250/HalI2c2.o
I2C_GetFlagStatus                                 Libraries/libstm32f4xx.a(stm32f4xx_i2c.o)
I2C_GetITStatus                                   Libraries/libstm32f4xx.a(stm32f4xx_i2c.o)
                                                  src\Mpu-9250/HalI2c2.o
I2C_GetLastEvent                                  Libraries/libstm32f4xx.a(stm32f4xx_i2c.o)
I2C_GetPEC                                        Libraries/libstm32f4xx.a(stm32f4xx_i2c.o)
I2C_ITConfig                                      Libraries/libstm32f4xx.a(stm32f4xx_i2c.o)
                                                  src\Mpu-9250/HalI2c2.o
I2C_Init                                          Libraries/libstm32f4xx.a(stm32f4xx_i2c.o)
                                                  src\Mpu-9250/HalI2c2.o
I2C_NACKPositionConfig                            Libraries/libstm32f4xx.a(stm32f4xx_i2c.o)
I2C_OwnAddress2Config                             Libraries/libstm32f4xx.a(stm32f4xx_i2c.o)
I2C_PECPositionConfig                             Libraries/libstm32f4xx.a(stm32f4xx_i2c.o)
I2C_ReadRegister                                  Libraries/libstm32f4xx.a(stm32f4xx_i2c.o)
                                                  src\Mpu-9250/HalI2c2.o
I2C_ReceiveData                                   Libraries/libstm32f4xx.a(stm32f4xx_i2c.o)
I2C_SMBusAlertConfig                              Libraries/libstm32f4xx.a(stm32f4xx_i2c.o)
I2C_Send7bitAddress                               Libraries/libstm32f4xx.a(stm32f4xx_i2c.o)
                                                  src\Mpu-9250/HalI2c2.o
I2C_SendData                                      Libraries/libstm32f4xx.a(stm32f4xx_i2c.o)
I2C_SoftwareResetCmd                              Libraries/libstm32f4xx.a(stm32f4xx_i2c.o)
I2C_StretchClockCmd                               Libraries/libstm32f4xx.a(stm32f4xx_i2c.o)
I2C_StructInit                                    Libraries/libstm32f4xx.a(stm32f4xx_i2c.o)
                                                  src\Mpu-9250/HalI2c2.o
I2C_TransmitPEC                                   Libraries/libstm32f4xx.a(stm32f4xx_i2c.o)
I2S_Cmd                                           Libraries/libstm32f4xx.a(stm32f4xx_spi.o)
I2S_FullDuplexConfig                              Libraries/libstm32f4xx.a(stm32f4xx_spi.o)
I2S_Init                                          Libraries/libstm32f4xx.a(stm32f4xx_spi.o)
I2S_StructInit                                    Libraries/libstm32f4xx.a(stm32f4xx_spi.o)
MemManage_Handler                                 src/stm32f4xx_it.o
NMI_Handler                                       src/stm32f4xx_it.o
NVIC_Init                                         Libraries/libstm32f4xx.a(misc.o)
                                                  src\Adis16488/HalSpi.o
                                                  src\Mpu-9250/HalI2c2.o
NVIC_PriorityGroupConfig                          Libraries/libstm32f4xx.a(misc.o)
NVIC_SetVectorTable                               Libraries/libstm32f4xx.a(misc.o)
NVIC_SystemLPConfig                               Libraries/libstm32f4xx.a(misc.o)
OTG_FS_IRQHandler                                 src/stm32f4xx_it.o
OTG_FS_WKUP_IRQHandler                            src/stm32f4xx_it.o
OTG_HS_EP1_IN_IRQHandler                          src/stm32f4xx_it.o
OTG_HS_EP1_OUT_IRQHandler                         src/stm32f4xx_it.o
OTG_HS_IRQHandler                                 src/stm32f4xx_it.o
OTG_HS_WKUP_IRQHandler                            src/stm32f4xx_it.o
PVD_IRQHandler                                    src/stm32f4xx_it.o
PendSV_Handler                                    src/stm32f4xx_it.o
RCC_AHB1PeriphClockCmd                            Libraries/libstm32f4xx.a(stm32f4xx_rcc.o)
                                                  src\Adis16488/HalSpi.o
                                                  src/main.o
                                                  src\Servo/HalTim.o
                                                  src\Mpu-9250/HalI2c2.o
                                                  src\Stdout/HalUsart.o
RCC_AHB1PeriphClockLPModeCmd                      Libraries/libstm32f4xx.a(stm32f4xx_rcc.o)
RCC_AHB1PeriphResetCmd                            Libraries/libstm32f4xx.a(stm32f4xx_rcc.o)
                                                  Libraries/libstm32f4xx.a(stm32f4xx_gpio.o)
RCC_AHB2PeriphClockCmd                            Libraries/libstm32f4xx.a(stm32f4xx_rcc.o)
RCC_AHB2PeriphClockLPModeCmd                      Libraries/libstm32f4xx.a(stm32f4xx_rcc.o)
RCC_AHB2PeriphResetCmd                            Libraries/libstm32f4xx.a(stm32f4xx_rcc.o)
RCC_AHB3PeriphClockCmd                            Libraries/libstm32f4xx.a(stm32f4xx_rcc.o)
RCC_AHB3PeriphClockLPModeCmd                      Libraries/libstm32f4xx.a(stm32f4xx_rcc.o)
RCC_AHB3PeriphResetCmd                            Libraries/libstm32f4xx.a(stm32f4xx_rcc.o)
RCC_APB1PeriphClockCmd                            Libraries/libstm32f4xx.a(stm32f4xx_rcc.o)
                                                  src\Servo/HalTim.o
                                                  src\Mpu-9250/HalI2c2.o
                                                  src\Stdout/HalUsart.o
RCC_APB1PeriphClockLPModeCmd                      Libraries/libstm32f4xx.a(stm32f4xx_rcc.o)
RCC_APB1PeriphResetCmd                            Libraries/libstm32f4xx.a(stm32f4xx_rcc.o)
                                                  Libraries/libstm32f4xx.a(stm32f4xx_usart.o)
                                                  Libraries/libstm32f4xx.a(stm32f4xx_tim.o)
                                                  Libraries/libstm32f4xx.a(stm32f4xx_spi.o)
                                                  Libraries/libstm32f4xx.a(stm32f4xx_i2c.o)
RCC_APB2PeriphClockCmd                            Libraries/libstm32f4xx.a(stm32f4xx_rcc.o)
                                                  src\Adis16488/HalSpi.o
RCC_APB2PeriphClockLPModeCmd                      Libraries/libstm32f4xx.a(stm32f4xx_rcc.o)
RCC_APB2PeriphResetCmd                            Libraries/libstm32f4xx.a(stm32f4xx_rcc.o)
                                                  Libraries/libstm32f4xx.a(stm32f4xx_usart.o)
                                                  Libraries/libstm32f4xx.a(stm32f4xx_tim.o)
                                                  Libraries/libstm32f4xx.a(stm32f4xx_spi.o)
RCC_AdjustHSICalibrationValue                     Libraries/libstm32f4xx.a(stm32f4xx_rcc.o)
RCC_BackupResetCmd                                Libraries/libstm32f4xx.a(stm32f4xx_rcc.o)
RCC_ClearFlag                                     Libraries/libstm32f4xx.a(stm32f4xx_rcc.o)
RCC_ClearITPendingBit                             Libraries/libstm32f4xx.a(stm32f4xx_rcc.o)
                                                  src/stm32f4xx_it.o
RCC_ClockSecuritySystemCmd                        Libraries/libstm32f4xx.a(stm32f4xx_rcc.o)
RCC_DeInit                                        Libraries/libstm32f4xx.a(stm32f4xx_rcc.o)
RCC_GetClocksFreq                                 Libraries/libstm32f4xx.a(stm32f4xx_rcc.o)
                                                  Libraries/libstm32f4xx.a(stm32f4xx_usart.o)
                                                  Libraries/libstm32f4xx.a(stm32f4xx_i2c.o)
RCC_GetFlagStatus                                 Libraries/libstm32f4xx.a(stm32f4xx_rcc.o)
                                                  src/stm32f4xx_it.o
RCC_GetITStatus                                   Libraries/libstm32f4xx.a(stm32f4xx_rcc.o)
                                                  src/stm32f4xx_it.o
RCC_GetSYSCLKSource                               Libraries/libstm32f4xx.a(stm32f4xx_rcc.o)
RCC_HCLKConfig                                    Libraries/libstm32f4xx.a(stm32f4xx_rcc.o)
RCC_HSEConfig                                     Libraries/libstm32f4xx.a(stm32f4xx_rcc.o)
                                                  src/stm32f4xx_it.o
RCC_HSICmd                                        Libraries/libstm32f4xx.a(stm32f4xx_rcc.o)
RCC_I2SCLKConfig                                  Libraries/libstm32f4xx.a(stm32f4xx_rcc.o)
RCC_IRQHandler                                    src/stm32f4xx_it.o
RCC_ITConfig                                      Libraries/libstm32f4xx.a(stm32f4xx_rcc.o)
                                                  src/stm32f4xx_it.o
RCC_LSEConfig                                     Libraries/libstm32f4xx.a(stm32f4xx_rcc.o)
RCC_LSICmd                                        Libraries/libstm32f4xx.a(stm32f4xx_rcc.o)
RCC_MCO1Config                                    Libraries/libstm32f4xx.a(stm32f4xx_rcc.o)
RCC_MCO2Config                                    Libraries/libstm32f4xx.a(stm32f4xx_rcc.o)
RCC_PCLK1Config                                   Libraries/libstm32f4xx.a(stm32f4xx_rcc.o)
RCC_PCLK2Config                                   Libraries/libstm32f4xx.a(stm32f4xx_rcc.o)
RCC_PLLCmd                                        Libraries/libstm32f4xx.a(stm32f4xx_rcc.o)
                                                  src/stm32f4xx_it.o
RCC_PLLConfig                                     Libraries/libstm32f4xx.a(stm32f4xx_rcc.o)
RCC_PLLI2SCmd                                     Libraries/libstm32f4xx.a(stm32f4xx_rcc.o)
RCC_PLLI2SConfig                                  Libraries/libstm32f4xx.a(stm32f4xx_rcc.o)
RCC_RTCCLKCmd                                     Libraries/libstm32f4xx.a(stm32f4xx_rcc.o)
RCC_RTCCLKConfig                                  Libraries/libstm32f4xx.a(stm32f4xx_rcc.o)
RCC_SYSCLKConfig                                  Libraries/libstm32f4xx.a(stm32f4xx_rcc.o)
                                                  src/stm32f4xx_it.o
RCC_WaitForHSEStartUp                             Libraries/libstm32f4xx.a(stm32f4xx_rcc.o)
RTC_Alarm_IRQHandler                              src/stm32f4xx_it.o
RTC_WKUP_IRQHandler                               src/stm32f4xx_it.o
Reset_Handler                                     Libraries/CMSIS/Device/ST/STM32F4xx/Source/Templates/gcc_ride7/startup_stm32f4xx.o
SDIO_IRQHandler                                   src/stm32f4xx_it.o
SPI1_IRQHandler                                   src/stm32f4xx_it.o
SPI2_IRQHandler                                   src/stm32f4xx_it.o
SPI3_IRQHandler                                   src/stm32f4xx_it.o
SPI_BiDirectionalLineConfig                       Libraries/libstm32f4xx.a(stm32f4xx_spi.o)
SPI_CalculateCRC                                  Libraries/libstm32f4xx.a(stm32f4xx_spi.o)
SPI_Cmd                                           Libraries/libstm32f4xx.a(stm32f4xx_spi.o)
                                                  src\Adis16488/HalSpi.o
SPI_DataSizeConfig                                Libraries/libstm32f4xx.a(stm32f4xx_spi.o)
SPI_GetCRC                                        Libraries/libstm32f4xx.a(stm32f4xx_spi.o)
SPI_GetCRCPolynomial                              Libraries/libstm32f4xx.a(stm32f4xx_spi.o)
SPI_I2S_ClearFlag                                 Libraries/libstm32f4xx.a(stm32f4xx_spi.o)
SPI_I2S_ClearITPendingBit                         Libraries/libstm32f4xx.a(stm32f4xx_spi.o)
SPI_I2S_DMACmd                                    Libraries/libstm32f4xx.a(stm32f4xx_spi.o)
                                                  src\Adis16488/HalSpi.o
SPI_I2S_DeInit                                    Libraries/libstm32f4xx.a(stm32f4xx_spi.o)
SPI_I2S_GetFlagStatus                             Libraries/libstm32f4xx.a(stm32f4xx_spi.o)
SPI_I2S_GetITStatus                               Libraries/libstm32f4xx.a(stm32f4xx_spi.o)
SPI_I2S_ITConfig                                  Libraries/libstm32f4xx.a(stm32f4xx_spi.o)
SPI_I2S_ReceiveData                               Libraries/libstm32f4xx.a(stm32f4xx_spi.o)
SPI_I2S_SendData                                  Libraries/libstm32f4xx.a(stm32f4xx_spi.o)
SPI_Init                                          Libraries/libstm32f4xx.a(stm32f4xx_spi.o)
                                                  src\Adis16488/HalSpi.o
SPI_NSSInternalSoftwareConfig                     Libraries/libstm32f4xx.a(stm32f4xx_spi.o)
SPI_SSOutputCmd                                   Libraries/libstm32f4xx.a(stm32f4xx_spi.o)
                                                  src\Adis16488/HalSpi.o
SPI_StructInit                                    Libraries/libstm32f4xx.a(stm32f4xx_spi.o)
SPI_TIModeCmd                                     Libraries/libstm32f4xx.a(stm32f4xx_spi.o)
SPI_TransmitCRC                                   Libraries/libstm32f4xx.a(stm32f4xx_spi.o)
SVC_Handler                                       src/stm32f4xx_it.o
SysTick_CLKSourceConfig                           Libraries/libstm32f4xx.a(misc.o)
SysTick_Handler                                   src/stm32f4xx_it.o
SystemCoreClock                                   src/system_stm32f4xx.o
                                                  Libraries/libstm32f4xx.a(port.o)
SystemCoreClockUpdate                             src/system_stm32f4xx.o
SystemInit                                        src/system_stm32f4xx.o
                                                  Libraries/CMSIS/Device/ST/STM32F4xx/Source/Templates/gcc_ride7/startup_stm32f4xx.o
                                                  src/main.o
TAMP_STAMP_IRQHandler                             src/stm32f4xx_it.o
TIM1_BRK_TIM9_IRQHandler                          src/stm32f4xx_it.o
TIM1_CC_IRQHandler                                src/stm32f4xx_it.o
TIM1_TRG_COM_TIM11_IRQHandler                     src/stm32f4xx_it.o
TIM1_UP_TIM10_IRQHandler                          src/stm32f4xx_it.o
TIM2_IRQHandler                                   src/stm32f4xx_it.o
TIM3_IRQHandler                                   src/stm32f4xx_it.o
TIM4_IRQHandler                                   src/stm32f4xx_it.o
TIM5_IRQHandler                                   src/stm32f4xx_it.o
TIM6_DAC_IRQHandler                               src/stm32f4xx_it.o
TIM7_IRQHandler                                   src/stm32f4xx_it.o
TIM8_BRK_TIM12_IRQHandler                         src/stm32f4xx_it.o
TIM8_CC_IRQHandler                                src/stm32f4xx_it.o
TIM8_TRG_COM_TIM14_IRQHandler                     src/stm32f4xx_it.o
TIM8_UP_TIM13_IRQHandler                          src/stm32f4xx_it.o
TIM_ARRPreloadConfig                              Libraries/libstm32f4xx.a(stm32f4xx_tim.o)
TIM_BDTRConfig                                    Libraries/libstm32f4xx.a(stm32f4xx_tim.o)
TIM_BDTRStructInit                                Libraries/libstm32f4xx.a(stm32f4xx_tim.o)
TIM_CCPreloadControl                              Libraries/libstm32f4xx.a(stm32f4xx_tim.o)
TIM_CCxCmd                                        Libraries/libstm32f4xx.a(stm32f4xx_tim.o)
TIM_CCxNCmd                                       Libraries/libstm32f4xx.a(stm32f4xx_tim.o)
TIM_ClearFlag                                     Libraries/libstm32f4xx.a(stm32f4xx_tim.o)
TIM_ClearITPendingBit                             Libraries/libstm32f4xx.a(stm32f4xx_tim.o)
TIM_ClearOC1Ref                                   Libraries/libstm32f4xx.a(stm32f4xx_tim.o)
TIM_ClearOC2Ref                                   Libraries/libstm32f4xx.a(stm32f4xx_tim.o)
TIM_ClearOC3Ref                                   Libraries/libstm32f4xx.a(stm32f4xx_tim.o)
TIM_ClearOC4Ref                                   Libraries/libstm32f4xx.a(stm32f4xx_tim.o)
TIM_Cmd                                           Libraries/libstm32f4xx.a(stm32f4xx_tim.o)
                                                  src\Servo/HalTim.o
TIM_CounterModeConfig                             Libraries/libstm32f4xx.a(stm32f4xx_tim.o)
TIM_CtrlPWMOutputs                                Libraries/libstm32f4xx.a(stm32f4xx_tim.o)
TIM_DMACmd                                        Libraries/libstm32f4xx.a(stm32f4xx_tim.o)
TIM_DMAConfig                                     Libraries/libstm32f4xx.a(stm32f4xx_tim.o)
TIM_DeInit                                        Libraries/libstm32f4xx.a(stm32f4xx_tim.o)
TIM_ETRClockMode1Config                           Libraries/libstm32f4xx.a(stm32f4xx_tim.o)
TIM_ETRClockMode2Config                           Libraries/libstm32f4xx.a(stm32f4xx_tim.o)
TIM_ETRConfig                                     Libraries/libstm32f4xx.a(stm32f4xx_tim.o)
TIM_EncoderInterfaceConfig                        Libraries/libstm32f4xx.a(stm32f4xx_tim.o)
TIM_ForcedOC1Config                               Libraries/libstm32f4xx.a(stm32f4xx_tim.o)
TIM_ForcedOC2Config                               Libraries/libstm32f4xx.a(stm32f4xx_tim.o)
TIM_ForcedOC3Config                               Libraries/libstm32f4xx.a(stm32f4xx_tim.o)
TIM_ForcedOC4Config                               Libraries/libstm32f4xx.a(stm32f4xx_tim.o)
TIM_GenerateEvent                                 Libraries/libstm32f4xx.a(stm32f4xx_tim.o)
TIM_GetCapture1                                   Libraries/libstm32f4xx.a(stm32f4xx_tim.o)
TIM_GetCapture2                                   Libraries/libstm32f4xx.a(stm32f4xx_tim.o)
TIM_GetCapture3                                   Libraries/libstm32f4xx.a(stm32f4xx_tim.o)
TIM_GetCapture4                                   Libraries/libstm32f4xx.a(stm32f4xx_tim.o)
TIM_GetCounter                                    Libraries/libstm32f4xx.a(stm32f4xx_tim.o)
TIM_GetFlagStatus                                 Libraries/libstm32f4xx.a(stm32f4xx_tim.o)
TIM_GetITStatus                                   Libraries/libstm32f4xx.a(stm32f4xx_tim.o)
TIM_GetPrescaler                                  Libraries/libstm32f4xx.a(stm32f4xx_tim.o)
TIM_ICInit                                        Libraries/libstm32f4xx.a(stm32f4xx_tim.o)
TIM_ICStructInit                                  Libraries/libstm32f4xx.a(stm32f4xx_tim.o)
TIM_ITConfig                                      Libraries/libstm32f4xx.a(stm32f4xx_tim.o)
TIM_ITRxExternalClockConfig                       Libraries/libstm32f4xx.a(stm32f4xx_tim.o)
TIM_InternalClockConfig                           Libraries/libstm32f4xx.a(stm32f4xx_tim.o)
TIM_OC1FastConfig                                 Libraries/libstm32f4xx.a(stm32f4xx_tim.o)
TIM_OC1Init                                       Libraries/libstm32f4xx.a(stm32f4xx_tim.o)
TIM_OC1NPolarityConfig                            Libraries/libstm32f4xx.a(stm32f4xx_tim.o)
TIM_OC1PolarityConfig                             Libraries/libstm32f4xx.a(stm32f4xx_tim.o)
TIM_OC1PreloadConfig                              Libraries/libstm32f4xx.a(stm32f4xx_tim.o)
TIM_OC2FastConfig                                 Libraries/libstm32f4xx.a(stm32f4xx_tim.o)
TIM_OC2Init                                       Libraries/libstm32f4xx.a(stm32f4xx_tim.o)
                                                  src\Servo/HalTim.o
TIM_OC2NPolarityConfig                            Libraries/libstm32f4xx.a(stm32f4xx_tim.o)
TIM_OC2PolarityConfig                             Libraries/libstm32f4xx.a(stm32f4xx_tim.o)
TIM_OC2PreloadConfig                              Libraries/libstm32f4xx.a(stm32f4xx_tim.o)
TIM_OC3FastConfig                                 Libraries/libstm32f4xx.a(stm32f4xx_tim.o)
TIM_OC3Init                                       Libraries/libstm32f4xx.a(stm32f4xx_tim.o)
TIM_OC3NPolarityConfig                            Libraries/libstm32f4xx.a(stm32f4xx_tim.o)
TIM_OC3PolarityConfig                             Libraries/libstm32f4xx.a(stm32f4xx_tim.o)
TIM_OC3PreloadConfig                              Libraries/libstm32f4xx.a(stm32f4xx_tim.o)
TIM_OC4FastConfig                                 Libraries/libstm32f4xx.a(stm32f4xx_tim.o)
TIM_OC4Init                                       Libraries/libstm32f4xx.a(stm32f4xx_tim.o)
TIM_OC4PolarityConfig                             Libraries/libstm32f4xx.a(stm32f4xx_tim.o)
TIM_OC4PreloadConfig                              Libraries/libstm32f4xx.a(stm32f4xx_tim.o)
TIM_OCStructInit                                  Libraries/libstm32f4xx.a(stm32f4xx_tim.o)
                                                  src\Servo/HalTim.o
TIM_PWMIConfig                                    Libraries/libstm32f4xx.a(stm32f4xx_tim.o)
TIM_PrescalerConfig                               Libraries/libstm32f4xx.a(stm32f4xx_tim.o)
TIM_RemapConfig                                   Libraries/libstm32f4xx.a(stm32f4xx_tim.o)
TIM_SelectCCDMA                                   Libraries/libstm32f4xx.a(stm32f4xx_tim.o)
TIM_SelectCOM                                     Libraries/libstm32f4xx.a(stm32f4xx_tim.o)
TIM_SelectHallSensor                              Libraries/libstm32f4xx.a(stm32f4xx_tim.o)
TIM_SelectInputTrigger                            Libraries/libstm32f4xx.a(stm32f4xx_tim.o)
TIM_SelectMasterSlaveMode                         Libraries/libstm32f4xx.a(stm32f4xx_tim.o)
TIM_SelectOCxM                                    Libraries/libstm32f4xx.a(stm32f4xx_tim.o)
TIM_SelectOnePulseMode                            Libraries/libstm32f4xx.a(stm32f4xx_tim.o)
TIM_SelectOutputTrigger                           Libraries/libstm32f4xx.a(stm32f4xx_tim.o)
TIM_SelectSlaveMode                               Libraries/libstm32f4xx.a(stm32f4xx_tim.o)
TIM_SetAutoreload                                 Libraries/libstm32f4xx.a(stm32f4xx_tim.o)
TIM_SetClockDivision                              Libraries/libstm32f4xx.a(stm32f4xx_tim.o)
TIM_SetCompare1                                   Libraries/libstm32f4xx.a(stm32f4xx_tim.o)
TIM_SetCompare2                                   Libraries/libstm32f4xx.a(stm32f4xx_tim.o)
TIM_SetCompare3                                   Libraries/libstm32f4xx.a(stm32f4xx_tim.o)
TIM_SetCompare4                                   Libraries/libstm32f4xx.a(stm32f4xx_tim.o)
TIM_SetCounter                                    Libraries/libstm32f4xx.a(stm32f4xx_tim.o)
TIM_SetIC1Prescaler                               Libraries/libstm32f4xx.a(stm32f4xx_tim.o)
TIM_SetIC2Prescaler                               Libraries/libstm32f4xx.a(stm32f4xx_tim.o)
TIM_SetIC3Prescaler                               Libraries/libstm32f4xx.a(stm32f4xx_tim.o)
TIM_SetIC4Prescaler                               Libraries/libstm32f4xx.a(stm32f4xx_tim.o)
TIM_TIxExternalClockConfig                        Libraries/libstm32f4xx.a(stm32f4xx_tim.o)
TIM_TimeBaseInit                                  Libraries/libstm32f4xx.a(stm32f4xx_tim.o)
                                                  src\Servo/HalTim.o
TIM_TimeBaseStructInit                            Libraries/libstm32f4xx.a(stm32f4xx_tim.o)
                                                  src\Servo/HalTim.o
TIM_UpdateDisableConfig                           Libraries/libstm32f4xx.a(stm32f4xx_tim.o)
TIM_UpdateRequestConfig                           Libraries/libstm32f4xx.a(stm32f4xx_tim.o)
UART4_IRQHandler                                  src/stm32f4xx_it.o
UART5_IRQHandler                                  src/stm32f4xx_it.o
USART1_IRQHandler                                 src/stm32f4xx_it.o
USART2_IRQHandler                                 src/stm32f4xx_it.o
USART3_IRQHandler                                 src/stm32f4xx_it.o
USART6_IRQHandler                                 src/stm32f4xx_it.o
USART_ClearFlag                                   Libraries/libstm32f4xx.a(stm32f4xx_usart.o)
                                                  src\Stdout/HalUsart.o
USART_ClearITPendingBit                           Libraries/libstm32f4xx.a(stm32f4xx_usart.o)
USART_ClockInit                                   Libraries/libstm32f4xx.a(stm32f4xx_usart.o)
USART_ClockStructInit                             Libraries/libstm32f4xx.a(stm32f4xx_usart.o)
USART_Cmd                                         Libraries/libstm32f4xx.a(stm32f4xx_usart.o)
                                                  src\Stdout/HalUsart.o
USART_DMACmd                                      Libraries/libstm32f4xx.a(stm32f4xx_usart.o)
                                                  src\Stdout/HalUsart.o
USART_DeInit                                      Libraries/libstm32f4xx.a(stm32f4xx_usart.o)
USART_GetFlagStatus                               Libraries/libstm32f4xx.a(stm32f4xx_usart.o)
USART_GetITStatus                                 Libraries/libstm32f4xx.a(stm32f4xx_usart.o)
USART_HalfDuplexCmd                               Libraries/libstm32f4xx.a(stm32f4xx_usart.o)
USART_ITConfig                                    Libraries/libstm32f4xx.a(stm32f4xx_usart.o)
USART_Init                                        Libraries/libstm32f4xx.a(stm32f4xx_usart.o)
                                                  src\Stdout/HalUsart.o
USART_IrDACmd                                     Libraries/libstm32f4xx.a(stm32f4xx_usart.o)
USART_IrDAConfig                                  Libraries/libstm32f4xx.a(stm32f4xx_usart.o)
USART_LINBreakDetectLengthConfig                  Libraries/libstm32f4xx.a(stm32f4xx_usart.o)
USART_LINCmd                                      Libraries/libstm32f4xx.a(stm32f4xx_usart.o)
USART_OneBitMethodCmd                             Libraries/libstm32f4xx.a(stm32f4xx_usart.o)
USART_OverSampling8Cmd                            Libraries/libstm32f4xx.a(stm32f4xx_usart.o)
USART_ReceiveData                                 Libraries/libstm32f4xx.a(stm32f4xx_usart.o)
USART_ReceiverWakeUpCmd                           Libraries/libstm32f4xx.a(stm32f4xx_usart.o)
USART_SendBreak                                   Libraries/libstm32f4xx.a(stm32f4xx_usart.o)
USART_SendData                                    Libraries/libstm32f4xx.a(stm32f4xx_usart.o)
USART_SetAddress                                  Libraries/libstm32f4xx.a(stm32f4xx_usart.o)
USART_SetGuardTime                                Libraries/libstm32f4xx.a(stm32f4xx_usart.o)
USART_SetPrescaler                                Libraries/libstm32f4xx.a(stm32f4xx_usart.o)
USART_SmartCardCmd                                Libraries/libstm32f4xx.a(stm32f4xx_usart.o)
USART_SmartCardNACKCmd                            Libraries/libstm32f4xx.a(stm32f4xx_usart.o)
USART_StructInit                                  Libraries/libstm32f4xx.a(stm32f4xx_usart.o)
                                                  src\Stdout/HalUsart.o
USART_WakeUpConfig                                Libraries/libstm32f4xx.a(stm32f4xx_usart.o)
UsageFault_Handler                                src/stm32f4xx_it.o
WWDG_IRQHandler                                   src/stm32f4xx_it.o
_Balloc                                           ../../yagarto/bin/../arm-none-eabi/lib/thumb\libc.a(lib_a-mprec.o)
                                                  ../../yagarto/bin/../arm-none-eabi/lib/thumb\libc.a(lib_a-dtoa.o)
_Bfree                                            ../../yagarto/bin/../arm-none-eabi/lib/thumb\libc.a(lib_a-mprec.o)
                                                  ../../yagarto/bin/../arm-none-eabi/lib/thumb\libc.a(lib_a-dtoa.o)
_Jv_RegisterClasses                               e:/mydocument/dropbox/futuregadgetresearch/sa/eclipse_stm32/yagarto/bin/../lib/gcc/arm-none-eabi/4.6.2/thumb/v7m/crtbegin.o
_PathLocale                                       ../../yagarto/bin/../arm-none-eabi/lib/thumb\libc.a(lib_a-locale.o)
__adddf3                                          e:/mydocument/dropbox/futuregadgetresearch/sa/eclipse_stm32/yagarto/bin/../lib/gcc/arm-none-eabi/4.6.2/thumb/v7m\libgcc.a(_arm_addsubdf3.o)
__aeabi_cdcmpeq                                   e:/mydocument/dropbox/futuregadgetresearch/sa/eclipse_stm32/yagarto/bin/../lib/gcc/arm-none-eabi/4.6.2/thumb/v7m\libgcc.a(_arm_cmpdf2.o)
__aeabi_cdcmple                                   e:/mydocument/dropbox/futuregadgetresearch/sa/eclipse_stm32/yagarto/bin/../lib/gcc/arm-none-eabi/4.6.2/thumb/v7m\libgcc.a(_arm_cmpdf2.o)
__aeabi_cdrcmple                                  e:/mydocument/dropbox/futuregadgetresearch/sa/eclipse_stm32/yagarto/bin/../lib/gcc/arm-none-eabi/4.6.2/thumb/v7m\libgcc.a(_arm_cmpdf2.o)
__aeabi_d2iz                                      e:/mydocument/dropbox/futuregadgetresearch/sa/eclipse_stm32/yagarto/bin/../lib/gcc/arm-none-eabi/4.6.2/thumb/v7m\libgcc.a(_arm_fixdfsi.o)
                                                  ../../yagarto/bin/../arm-none-eabi/lib/thumb\libc.a(lib_a-dtoa.o)
__aeabi_dadd                                      e:/mydocument/dropbox/futuregadgetresearch/sa/eclipse_stm32/yagarto/bin/../lib/gcc/arm-none-eabi/4.6.2/thumb/v7m\libgcc.a(_arm_addsubdf3.o)
                                                  ../../yagarto/bin/../arm-none-eabi/lib/thumb\libc.a(lib_a-dtoa.o)
__aeabi_dcmpeq                                    e:/mydocument/dropbox/futuregadgetresearch/sa/eclipse_stm32/yagarto/bin/../lib/gcc/arm-none-eabi/4.6.2/thumb/v7m\libgcc.a(_arm_cmpdf2.o)
                                                  ../../yagarto/bin/../arm-none-eabi/lib/thumb\libc.a(lib_a-dtoa.o)
                                                  ../../yagarto/bin/../arm-none-eabi/lib/thumb\libc.a(lib_a-vfprintf.o)
                                                  ../../yagarto/bin/../arm-none-eabi/lib/thumb\libc.a(lib_a-svfprintf.o)
__aeabi_dcmpge                                    e:/mydocument/dropbox/futuregadgetresearch/sa/eclipse_stm32/yagarto/bin/../lib/gcc/arm-none-eabi/4.6.2/thumb/v7m\libgcc.a(_arm_cmpdf2.o)
                                                  ../../yagarto/bin/../arm-none-eabi/lib/thumb\libc.a(lib_a-dtoa.o)
__aeabi_dcmpgt                                    e:/mydocument/dropbox/futuregadgetresearch/sa/eclipse_stm32/yagarto/bin/../lib/gcc/arm-none-eabi/4.6.2/thumb/v7m\libgcc.a(_arm_cmpdf2.o)
                                                  ../../yagarto/bin/../arm-none-eabi/lib/thumb\libc.a(lib_a-dtoa.o)
__aeabi_dcmple                                    e:/mydocument/dropbox/futuregadgetresearch/sa/eclipse_stm32/yagarto/bin/../lib/gcc/arm-none-eabi/4.6.2/thumb/v7m\libgcc.a(_arm_cmpdf2.o)
__aeabi_dcmplt                                    e:/mydocument/dropbox/futuregadgetresearch/sa/eclipse_stm32/yagarto/bin/../lib/gcc/arm-none-eabi/4.6.2/thumb/v7m\libgcc.a(_arm_cmpdf2.o)
                                                  ../../yagarto/bin/../arm-none-eabi/lib/thumb\libc.a(lib_a-dtoa.o)
                                                  ../../yagarto/bin/../arm-none-eabi/lib/thumb\libc.a(lib_a-vfprintf.o)
                                                  ../../yagarto/bin/../arm-none-eabi/lib/thumb\libc.a(lib_a-svfprintf.o)
__aeabi_ddiv                                      e:/mydocument/dropbox/futuregadgetresearch/sa/eclipse_stm32/yagarto/bin/../lib/gcc/arm-none-eabi/4.6.2/thumb/v7m\libgcc.a(_arm_muldivdf3.o)
                                                  ../../yagarto/bin/../arm-none-eabi/lib/thumb\libc.a(lib_a-mprec.o)
                                                  ../../yagarto/bin/../arm-none-eabi/lib/thumb\libc.a(lib_a-dtoa.o)
__aeabi_dmul                                      e:/mydocument/dropbox/futuregadgetresearch/sa/eclipse_stm32/yagarto/bin/../lib/gcc/arm-none-eabi/4.6.2/thumb/v7m\libgcc.a(_arm_muldivdf3.o)
                                                  ../../yagarto/bin/../arm-none-eabi/lib/thumb\libc.a(lib_a-mprec.o)
                                                  ../../yagarto/bin/../arm-none-eabi/lib/thumb\libc.a(lib_a-dtoa.o)
__aeabi_drsub                                     e:/mydocument/dropbox/futuregadgetresearch/sa/eclipse_stm32/yagarto/bin/../lib/gcc/arm-none-eabi/4.6.2/thumb/v7m\libgcc.a(_arm_addsubdf3.o)
__aeabi_dsub                                      e:/mydocument/dropbox/futuregadgetresearch/sa/eclipse_stm32/yagarto/bin/../lib/gcc/arm-none-eabi/4.6.2/thumb/v7m\libgcc.a(_arm_addsubdf3.o)
                                                  ../../yagarto/bin/../arm-none-eabi/lib/thumb\libc.a(lib_a-dtoa.o)
__aeabi_f2d                                       e:/mydocument/dropbox/futuregadgetresearch/sa/eclipse_stm32/yagarto/bin/../lib/gcc/arm-none-eabi/4.6.2/thumb/v7m\libgcc.a(_arm_addsubdf3.o)
__aeabi_i2d                                       e:/mydocument/dropbox/futuregadgetresearch/sa/eclipse_stm32/yagarto/bin/../lib/gcc/arm-none-eabi/4.6.2/thumb/v7m\libgcc.a(_arm_addsubdf3.o)
                                                  ../../yagarto/bin/../arm-none-eabi/lib/thumb\libc.a(lib_a-dtoa.o)
__aeabi_idiv                                      e:/mydocument/dropbox/futuregadgetresearch/sa/eclipse_stm32/yagarto/bin/../lib/gcc/arm-none-eabi/4.6.2/thumb/v7m\libgcc.a(_divsi3.o)
                                                  ../../yagarto/bin/../arm-none-eabi/lib/thumb\libc.a(lib_a-mprec.o)
                                                  ../../yagarto/bin/../arm-none-eabi/lib/thumb\libc.a(lib_a-vfprintf.o)
                                                  ../../yagarto/bin/../arm-none-eabi/lib/thumb\libc.a(lib_a-svfprintf.o)
__aeabi_idiv0                                     e:/mydocument/dropbox/futuregadgetresearch/sa/eclipse_stm32/yagarto/bin/../lib/gcc/arm-none-eabi/4.6.2/thumb/v7m\libgcc.a(_dvmd_tls.o)
                                                  e:/mydocument/dropbox/futuregadgetresearch/sa/eclipse_stm32/yagarto/bin/../lib/gcc/arm-none-eabi/4.6.2/thumb/v7m\libgcc.a(_divsi3.o)
                                                  e:/mydocument/dropbox/futuregadgetresearch/sa/eclipse_stm32/yagarto/bin/../lib/gcc/arm-none-eabi/4.6.2/thumb/v7m\libgcc.a(_udivsi3.o)
__aeabi_idivmod                                   e:/mydocument/dropbox/futuregadgetresearch/sa/eclipse_stm32/yagarto/bin/../lib/gcc/arm-none-eabi/4.6.2/thumb/v7m\libgcc.a(_divsi3.o)
                                                  ../../yagarto/bin/../arm-none-eabi/lib/thumb\libc.a(lib_a-vfprintf.o)
                                                  ../../yagarto/bin/../arm-none-eabi/lib/thumb\libc.a(lib_a-svfprintf.o)
__aeabi_l2d                                       e:/mydocument/dropbox/futuregadgetresearch/sa/eclipse_stm32/yagarto/bin/../lib/gcc/arm-none-eabi/4.6.2/thumb/v7m\libgcc.a(_arm_addsubdf3.o)
__aeabi_ldiv0                                     e:/mydocument/dropbox/futuregadgetresearch/sa/eclipse_stm32/yagarto/bin/../lib/gcc/arm-none-eabi/4.6.2/thumb/v7m\libgcc.a(_dvmd_tls.o)
__aeabi_ui2d                                      e:/mydocument/dropbox/futuregadgetresearch/sa/eclipse_stm32/yagarto/bin/../lib/gcc/arm-none-eabi/4.6.2/thumb/v7m\libgcc.a(_arm_addsubdf3.o)
                                                  ../../yagarto/bin/../arm-none-eabi/lib/thumb\libc.a(lib_a-dtoa.o)
__aeabi_uidiv                                     e:/mydocument/dropbox/futuregadgetresearch/sa/eclipse_stm32/yagarto/bin/../lib/gcc/arm-none-eabi/4.6.2/thumb/v7m\libgcc.a(_udivsi3.o)
                                                  ../../yagarto/bin/../arm-none-eabi/lib/thumb\libc.a(lib_a-vfiprintf.o)
                                                  ../../yagarto/bin/../arm-none-eabi/lib/thumb\libc.a(lib_a-svfiprintf.o)
                                                  ../../yagarto/bin/../arm-none-eabi/lib/thumb\libc.a(lib_a-dtoa.o)
                                                  ../../yagarto/bin/../arm-none-eabi/lib/thumb\libc.a(lib_a-vfprintf.o)
                                                  ../../yagarto/bin/../arm-none-eabi/lib/thumb\libc.a(lib_a-svfprintf.o)
__aeabi_uidivmod                                  e:/mydocument/dropbox/futuregadgetresearch/sa/eclipse_stm32/yagarto/bin/../lib/gcc/arm-none-eabi/4.6.2/thumb/v7m\libgcc.a(_udivsi3.o)
                                                  ../../yagarto/bin/../arm-none-eabi/lib/thumb\libc.a(lib_a-vfiprintf.o)
                                                  ../../yagarto/bin/../arm-none-eabi/lib/thumb\libc.a(lib_a-svfiprintf.o)
                                                  ../../yagarto/bin/../arm-none-eabi/lib/thumb\libc.a(lib_a-vfprintf.o)
                                                  ../../yagarto/bin/../arm-none-eabi/lib/thumb\libc.a(lib_a-svfprintf.o)
__aeabi_ul2d                                      e:/mydocument/dropbox/futuregadgetresearch/sa/eclipse_stm32/yagarto/bin/../lib/gcc/arm-none-eabi/4.6.2/thumb/v7m\libgcc.a(_arm_addsubdf3.o)
__any_on                                          ../../yagarto/bin/../arm-none-eabi/lib/thumb\libc.a(lib_a-mprec.o)
__ascii_wctomb                                    ../../yagarto/bin/../arm-none-eabi/lib/thumb\libc.a(lib_a-wctomb_r.o)
__b2d                                             ../../yagarto/bin/../arm-none-eabi/lib/thumb\libc.a(lib_a-mprec.o)
__bss_end__                                       e:/mydocument/dropbox/futuregadgetresearch/sa/eclipse_stm32/yagarto/bin/../lib/gcc/arm-none-eabi/4.6.2/../../../../arm-none-eabi/lib/thumb/v7m/crt0.o
__bss_start__                                     e:/mydocument/dropbox/futuregadgetresearch/sa/eclipse_stm32/yagarto/bin/../lib/gcc/arm-none-eabi/4.6.2/../../../../arm-none-eabi/lib/thumb/v7m/crt0.o
__call_exitprocs                                  ../../yagarto/bin/../arm-none-eabi/lib/thumb\libc.a(lib_a-__call_atexit.o)
                                                  ../../yagarto/bin/../arm-none-eabi/lib/thumb\libc.a(lib_a-exit.o)
__cmpdf2                                          e:/mydocument/dropbox/futuregadgetresearch/sa/eclipse_stm32/yagarto/bin/../lib/gcc/arm-none-eabi/4.6.2/thumb/v7m\libgcc.a(_arm_cmpdf2.o)
__copybits                                        ../../yagarto/bin/../arm-none-eabi/lib/thumb\libc.a(lib_a-mprec.o)
__cxa_pure_virtual                                src/tweak.o
__d2b                                             ../../yagarto/bin/../arm-none-eabi/lib/thumb\libc.a(lib_a-mprec.o)
                                                  ../../yagarto/bin/../arm-none-eabi/lib/thumb\libc.a(lib_a-dtoa.o)
__deregister_frame_info                           e:/mydocument/dropbox/futuregadgetresearch/sa/eclipse_stm32/yagarto/bin/../lib/gcc/arm-none-eabi/4.6.2/thumb/v7m/crtbegin.o
__divdf3                                          e:/mydocument/dropbox/futuregadgetresearch/sa/eclipse_stm32/yagarto/bin/../lib/gcc/arm-none-eabi/4.6.2/thumb/v7m\libgcc.a(_arm_muldivdf3.o)
__divsi3                                          e:/mydocument/dropbox/futuregadgetresearch/sa/eclipse_stm32/yagarto/bin/../lib/gcc/arm-none-eabi/4.6.2/thumb/v7m\libgcc.a(_divsi3.o)
__dso_handle                                      e:/mydocument/dropbox/futuregadgetresearch/sa/eclipse_stm32/yagarto/bin/../lib/gcc/arm-none-eabi/4.6.2/thumb/v7m/crtbegin.o
__eqdf2                                           e:/mydocument/dropbox/futuregadgetresearch/sa/eclipse_stm32/yagarto/bin/../lib/gcc/arm-none-eabi/4.6.2/thumb/v7m\libgcc.a(_arm_cmpdf2.o)
__errno                                           ../../yagarto/bin/../arm-none-eabi/lib/thumb\libc.a(lib_a-errno.o)
                                                  src/syscalls.o
__exidx_end                                       src/tweak.o
__exidx_start                                     src/tweak.o
__extendsfdf2                                     e:/mydocument/dropbox/futuregadgetresearch/sa/eclipse_stm32/yagarto/bin/../lib/gcc/arm-none-eabi/4.6.2/thumb/v7m\libgcc.a(_arm_addsubdf3.o)
__fini_array_end                                  ../../yagarto/bin/../arm-none-eabi/lib/thumb\libc.a(lib_a-fini.o)
__fini_array_start                                ../../yagarto/bin/../arm-none-eabi/lib/thumb\libc.a(lib_a-fini.o)
__fixdfsi                                         e:/mydocument/dropbox/futuregadgetresearch/sa/eclipse_stm32/yagarto/bin/../lib/gcc/arm-none-eabi/4.6.2/thumb/v7m\libgcc.a(_arm_fixdfsi.o)
__floatdidf                                       e:/mydocument/dropbox/futuregadgetresearch/sa/eclipse_stm32/yagarto/bin/../lib/gcc/arm-none-eabi/4.6.2/thumb/v7m\libgcc.a(_arm_addsubdf3.o)
__floatsidf                                       e:/mydocument/dropbox/futuregadgetresearch/sa/eclipse_stm32/yagarto/bin/../lib/gcc/arm-none-eabi/4.6.2/thumb/v7m\libgcc.a(_arm_addsubdf3.o)
__floatundidf                                     e:/mydocument/dropbox/futuregadgetresearch/sa/eclipse_stm32/yagarto/bin/../lib/gcc/arm-none-eabi/4.6.2/thumb/v7m\libgcc.a(_arm_addsubdf3.o)
__floatunsidf                                     e:/mydocument/dropbox/futuregadgetresearch/sa/eclipse_stm32/yagarto/bin/../lib/gcc/arm-none-eabi/4.6.2/thumb/v7m\libgcc.a(_arm_addsubdf3.o)
__fp_lock_all                                     ../../yagarto/bin/../arm-none-eabi/lib/thumb\libc.a(lib_a-findfp.o)
__fp_unlock_all                                   ../../yagarto/bin/../arm-none-eabi/lib/thumb\libc.a(lib_a-findfp.o)
__fpclassifyd                                     ../../yagarto/bin/../arm-none-eabi/lib/thumb\libc.a(lib_a-s_fpclassify.o)
                                                  ../../yagarto/bin/../arm-none-eabi/lib/thumb\libc.a(lib_a-vfprintf.o)
                                                  ../../yagarto/bin/../arm-none-eabi/lib/thumb\libc.a(lib_a-svfprintf.o)
__gedf2                                           e:/mydocument/dropbox/futuregadgetresearch/sa/eclipse_stm32/yagarto/bin/../lib/gcc/arm-none-eabi/4.6.2/thumb/v7m\libgcc.a(_arm_cmpdf2.o)
__gnu_cxx::__verbose_terminate_handler()          src/tweak.o
__gtdf2                                           e:/mydocument/dropbox/futuregadgetresearch/sa/eclipse_stm32/yagarto/bin/../lib/gcc/arm-none-eabi/4.6.2/thumb/v7m\libgcc.a(_arm_cmpdf2.o)
__hi0bits                                         ../../yagarto/bin/../arm-none-eabi/lib/thumb\libc.a(lib_a-mprec.o)
                                                  ../../yagarto/bin/../arm-none-eabi/lib/thumb\libc.a(lib_a-dtoa.o)
__i2b                                             ../../yagarto/bin/../arm-none-eabi/lib/thumb\libc.a(lib_a-mprec.o)
                                                  ../../yagarto/bin/../arm-none-eabi/lib/thumb\libc.a(lib_a-dtoa.o)
__init_array_end                                  ../../yagarto/bin/../arm-none-eabi/lib/thumb\libc.a(lib_a-init.o)
__init_array_start                                ../../yagarto/bin/../arm-none-eabi/lib/thumb\libc.a(lib_a-init.o)
__ledf2                                           e:/mydocument/dropbox/futuregadgetresearch/sa/eclipse_stm32/yagarto/bin/../lib/gcc/arm-none-eabi/4.6.2/thumb/v7m\libgcc.a(_arm_cmpdf2.o)
__libc_fini_array                                 ../../yagarto/bin/../arm-none-eabi/lib/thumb\libc.a(lib_a-fini.o)
                                                  e:/mydocument/dropbox/futuregadgetresearch/sa/eclipse_stm32/yagarto/bin/../lib/gcc/arm-none-eabi/4.6.2/../../../../arm-none-eabi/lib/thumb/v7m/crt0.o
__libc_init_array                                 ../../yagarto/bin/../arm-none-eabi/lib/thumb\libc.a(lib_a-init.o)
                                                  e:/mydocument/dropbox/futuregadgetresearch/sa/eclipse_stm32/yagarto/bin/../lib/gcc/arm-none-eabi/4.6.2/../../../../arm-none-eabi/lib/thumb/v7m/crt0.o
__lo0bits                                         ../../yagarto/bin/../arm-none-eabi/lib/thumb\libc.a(lib_a-mprec.o)
__locale_charset                                  ../../yagarto/bin/../arm-none-eabi/lib/thumb\libc.a(lib_a-locale.o)
                                                  ../../yagarto/bin/../arm-none-eabi/lib/thumb\libc.a(lib_a-wctomb_r.o)
                                                  ../../yagarto/bin/../arm-none-eabi/lib/thumb\libc.a(lib_a-wcrtomb.o)
__locale_cjk_lang                                 ../../yagarto/bin/../arm-none-eabi/lib/thumb\libc.a(lib_a-locale.o)
__locale_mb_cur_max                               ../../yagarto/bin/../arm-none-eabi/lib/thumb\libc.a(lib_a-locale.o)
                                                  ../../yagarto/bin/../arm-none-eabi/lib/thumb\libc.a(lib_a-fputwc.o)
__locale_msgcharset                               ../../yagarto/bin/../arm-none-eabi/lib/thumb\libc.a(lib_a-locale.o)
__lshift                                          ../../yagarto/bin/../arm-none-eabi/lib/thumb\libc.a(lib_a-mprec.o)
                                                  ../../yagarto/bin/../arm-none-eabi/lib/thumb\libc.a(lib_a-dtoa.o)
__ltdf2                                           e:/mydocument/dropbox/futuregadgetresearch/sa/eclipse_stm32/yagarto/bin/../lib/gcc/arm-none-eabi/4.6.2/thumb/v7m\libgcc.a(_arm_cmpdf2.o)
__malloc_av_                                      ../../yagarto/bin/../arm-none-eabi/lib/thumb\libc.a(lib_a-mallocr.o)
                                                  ../../yagarto/bin/../arm-none-eabi/lib/thumb\libc.a(lib_a-reallocr.o)
                                                  ../../yagarto/bin/../arm-none-eabi/lib/thumb\libc.a(lib_a-freer.o)
__malloc_current_mallinfo                         ../../yagarto/bin/../arm-none-eabi/lib/thumb\libc.a(lib_a-mallocr.o)
                                                  ../../yagarto/bin/../arm-none-eabi/lib/thumb\libc.a(lib_a-freer.o)
__malloc_lock                                     ../../yagarto/bin/../arm-none-eabi/lib/thumb\libc.a(lib_a-mlock.o)
                                                  ../../yagarto/bin/../arm-none-eabi/lib/thumb\libc.a(lib_a-reallocr.o)
                                                  ../../yagarto/bin/../arm-none-eabi/lib/thumb\libc.a(lib_a-freer.o)
                                                  ../../yagarto/bin/../arm-none-eabi/lib/thumb\libc.a(lib_a-mallocr.o)
__malloc_max_sbrked_mem                           ../../yagarto/bin/../arm-none-eabi/lib/thumb\libc.a(lib_a-mallocr.o)
__malloc_max_total_mem                            ../../yagarto/bin/../arm-none-eabi/lib/thumb\libc.a(lib_a-mallocr.o)
__malloc_sbrk_base                                ../../yagarto/bin/../arm-none-eabi/lib/thumb\libc.a(lib_a-mallocr.o)
                                                  ../../yagarto/bin/../arm-none-eabi/lib/thumb\libc.a(lib_a-freer.o)
__malloc_top_pad                                  ../../yagarto/bin/../arm-none-eabi/lib/thumb\libc.a(lib_a-mallocr.o)
                                                  ../../yagarto/bin/../arm-none-eabi/lib/thumb\libc.a(lib_a-freer.o)
__malloc_trim_threshold                           ../../yagarto/bin/../arm-none-eabi/lib/thumb\libc.a(lib_a-mallocr.o)
                                                  ../../yagarto/bin/../arm-none-eabi/lib/thumb\libc.a(lib_a-freer.o)
__malloc_unlock                                   ../../yagarto/bin/../arm-none-eabi/lib/thumb\libc.a(lib_a-mlock.o)
                                                  ../../yagarto/bin/../arm-none-eabi/lib/thumb\libc.a(lib_a-reallocr.o)
                                                  ../../yagarto/bin/../arm-none-eabi/lib/thumb\libc.a(lib_a-freer.o)
                                                  ../../yagarto/bin/../arm-none-eabi/lib/thumb\libc.a(lib_a-mallocr.o)
__mb_cur_max                                      ../../yagarto/bin/../arm-none-eabi/lib/thumb\libc.a(lib_a-locale.o)
__mcmp                                            ../../yagarto/bin/../arm-none-eabi/lib/thumb\libc.a(lib_a-mprec.o)
                                                  ../../yagarto/bin/../arm-none-eabi/lib/thumb\libc.a(lib_a-dtoa.o)
__mdiff                                           ../../yagarto/bin/../arm-none-eabi/lib/thumb\libc.a(lib_a-mprec.o)
                                                  ../../yagarto/bin/../arm-none-eabi/lib/thumb\libc.a(lib_a-dtoa.o)
__mlocale_changed                                 ../../yagarto/bin/../arm-none-eabi/lib/thumb\libc.a(lib_a-locale.o)
__mprec_bigtens                                   ../../yagarto/bin/../arm-none-eabi/lib/thumb\libc.a(lib_a-mprec.o)
                                                  ../../yagarto/bin/../arm-none-eabi/lib/thumb\libc.a(lib_a-dtoa.o)
__mprec_tens                                      ../../yagarto/bin/../arm-none-eabi/lib/thumb\libc.a(lib_a-mprec.o)
                                                  ../../yagarto/bin/../arm-none-eabi/lib/thumb\libc.a(lib_a-dtoa.o)
__mprec_tinytens                                  ../../yagarto/bin/../arm-none-eabi/lib/thumb\libc.a(lib_a-mprec.o)
__muldf3                                          e:/mydocument/dropbox/futuregadgetresearch/sa/eclipse_stm32/yagarto/bin/../lib/gcc/arm-none-eabi/4.6.2/thumb/v7m\libgcc.a(_arm_muldivdf3.o)
__multadd                                         ../../yagarto/bin/../arm-none-eabi/lib/thumb\libc.a(lib_a-mprec.o)
                                                  ../../yagarto/bin/../arm-none-eabi/lib/thumb\libc.a(lib_a-dtoa.o)
__multiply                                        ../../yagarto/bin/../arm-none-eabi/lib/thumb\libc.a(lib_a-mprec.o)
                                                  ../../yagarto/bin/../arm-none-eabi/lib/thumb\libc.a(lib_a-dtoa.o)
__nedf2                                           e:/mydocument/dropbox/futuregadgetresearch/sa/eclipse_stm32/yagarto/bin/../lib/gcc/arm-none-eabi/4.6.2/thumb/v7m\libgcc.a(_arm_cmpdf2.o)
__nlocale_changed                                 ../../yagarto/bin/../arm-none-eabi/lib/thumb\libc.a(lib_a-locale.o)
__pow5mult                                        ../../yagarto/bin/../arm-none-eabi/lib/thumb\libc.a(lib_a-mprec.o)
                                                  ../../yagarto/bin/../arm-none-eabi/lib/thumb\libc.a(lib_a-dtoa.o)
__preinit_array_end                               ../../yagarto/bin/../arm-none-eabi/lib/thumb\libc.a(lib_a-init.o)
__preinit_array_start                             ../../yagarto/bin/../arm-none-eabi/lib/thumb\libc.a(lib_a-init.o)
__ratio                                           ../../yagarto/bin/../arm-none-eabi/lib/thumb\libc.a(lib_a-mprec.o)
__register_exitproc                               ../../yagarto/bin/../arm-none-eabi/lib/thumb\libc.a(lib_a-__atexit.o)
                                                  ../../yagarto/bin/../arm-none-eabi/lib/thumb\libc.a(lib_a-atexit.o)
__register_frame_info                             e:/mydocument/dropbox/futuregadgetresearch/sa/eclipse_stm32/yagarto/bin/../lib/gcc/arm-none-eabi/4.6.2/thumb/v7m/crtbegin.o
__s2b                                             ../../yagarto/bin/../arm-none-eabi/lib/thumb\libc.a(lib_a-mprec.o)
__sclose                                          ../../yagarto/bin/../arm-none-eabi/lib/thumb\libc.a(lib_a-stdio.o)
                                                  ../../yagarto/bin/../arm-none-eabi/lib/thumb\libc.a(lib_a-findfp.o)
__seofread                                        ../../yagarto/bin/../arm-none-eabi/lib/thumb\libc.a(lib_a-stdio.o)
__sfmoreglue                                      ../../yagarto/bin/../arm-none-eabi/lib/thumb\libc.a(lib_a-findfp.o)
__sfp                                             ../../yagarto/bin/../arm-none-eabi/lib/thumb\libc.a(lib_a-findfp.o)
__sfp_lock_acquire                                ../../yagarto/bin/../arm-none-eabi/lib/thumb\libc.a(lib_a-findfp.o)
                                                  ../../yagarto/bin/../arm-none-eabi/lib/thumb\libc.a(lib_a-fclose.o)
                                                  ../../yagarto/bin/../arm-none-eabi/lib/thumb\libc.a(lib_a-fwalk.o)
__sfp_lock_release                                ../../yagarto/bin/../arm-none-eabi/lib/thumb\libc.a(lib_a-findfp.o)
                                                  ../../yagarto/bin/../arm-none-eabi/lib/thumb\libc.a(lib_a-fclose.o)
                                                  ../../yagarto/bin/../arm-none-eabi/lib/thumb\libc.a(lib_a-fwalk.o)
__sfvwrite_r                                      ../../yagarto/bin/../arm-none-eabi/lib/thumb\libc.a(lib_a-fvwrite.o)
                                                  ../../yagarto/bin/../arm-none-eabi/lib/thumb\libc.a(lib_a-vfiprintf.o)
__sinit                                           ../../yagarto/bin/../arm-none-eabi/lib/thumb\libc.a(lib_a-findfp.o)
                                                  ../../yagarto/bin/../arm-none-eabi/lib/thumb\libc.a(lib_a-wbuf.o)
                                                  ../../yagarto/bin/../arm-none-eabi/lib/thumb\libc.a(lib_a-fputwc.o)
                                                  ../../yagarto/bin/../arm-none-eabi/lib/thumb\libc.a(lib_a-fclose.o)
                                                  ../../yagarto/bin/../arm-none-eabi/lib/thumb\libc.a(lib_a-vfiprintf.o)
                                                  ../../yagarto/bin/../arm-none-eabi/lib/thumb\libc.a(lib_a-fflush.o)
                                                  ../../yagarto/bin/../arm-none-eabi/lib/thumb\libc.a(lib_a-wsetup.o)
                                                  ../../yagarto/bin/../arm-none-eabi/lib/thumb\libc.a(lib_a-vfprintf.o)
__sinit_lock_acquire                              ../../yagarto/bin/../arm-none-eabi/lib/thumb\libc.a(lib_a-findfp.o)
__sinit_lock_release                              ../../yagarto/bin/../arm-none-eabi/lib/thumb\libc.a(lib_a-findfp.o)
__smakebuf_r                                      ../../yagarto/bin/../arm-none-eabi/lib/thumb\libc.a(lib_a-makebuf.o)
                                                  ../../yagarto/bin/../arm-none-eabi/lib/thumb\libc.a(lib_a-wsetup.o)
__sprint_r                                        ../../yagarto/bin/../arm-none-eabi/lib/thumb\libc.a(lib_a-vfiprintf.o)
                                                  ../../yagarto/bin/../arm-none-eabi/lib/thumb\libc.a(lib_a-vfprintf.o)
__sread                                           ../../yagarto/bin/../arm-none-eabi/lib/thumb\libc.a(lib_a-stdio.o)
                                                  ../../yagarto/bin/../arm-none-eabi/lib/thumb\libc.a(lib_a-findfp.o)
__sseek                                           ../../yagarto/bin/../arm-none-eabi/lib/thumb\libc.a(lib_a-stdio.o)
                                                  ../../yagarto/bin/../arm-none-eabi/lib/thumb\libc.a(lib_a-makebuf.o)
                                                  ../../yagarto/bin/../arm-none-eabi/lib/thumb\libc.a(lib_a-findfp.o)
__ssprint_r                                       ../../yagarto/bin/../arm-none-eabi/lib/thumb\libc.a(lib_a-svfiprintf.o)
                                                  ../../yagarto/bin/../arm-none-eabi/lib/thumb\libc.a(lib_a-svfprintf.o)
__stack                                           e:/mydocument/dropbox/futuregadgetresearch/sa/eclipse_stm32/yagarto/bin/../lib/gcc/arm-none-eabi/4.6.2/../../../../arm-none-eabi/lib/thumb/v7m/crt0.o
__subdf3                                          e:/mydocument/dropbox/futuregadgetresearch/sa/eclipse_stm32/yagarto/bin/../lib/gcc/arm-none-eabi/4.6.2/thumb/v7m\libgcc.a(_arm_addsubdf3.o)
__swbuf                                           ../../yagarto/bin/../arm-none-eabi/lib/thumb\libc.a(lib_a-wbuf.o)
__swbuf_r                                         ../../yagarto/bin/../arm-none-eabi/lib/thumb\libc.a(lib_a-wbuf.o)
                                                  ../../yagarto/bin/../arm-none-eabi/lib/thumb\libc.a(lib_a-fputwc.o)
__swrite                                          ../../yagarto/bin/../arm-none-eabi/lib/thumb\libc.a(lib_a-stdio.o)
                                                  ../../yagarto/bin/../arm-none-eabi/lib/thumb\libc.a(lib_a-findfp.o)
__swsetup_r                                       ../../yagarto/bin/../arm-none-eabi/lib/thumb\libc.a(lib_a-wsetup.o)
                                                  ../../yagarto/bin/../arm-none-eabi/lib/thumb\libc.a(lib_a-wbuf.o)
                                                  ../../yagarto/bin/../arm-none-eabi/lib/thumb\libc.a(lib_a-fvwrite.o)
                                                  ../../yagarto/bin/../arm-none-eabi/lib/thumb\libc.a(lib_a-vfiprintf.o)
                                                  ../../yagarto/bin/../arm-none-eabi/lib/thumb\libc.a(lib_a-vfprintf.o)
__udivsi3                                         e:/mydocument/dropbox/futuregadgetresearch/sa/eclipse_stm32/yagarto/bin/../lib/gcc/arm-none-eabi/4.6.2/thumb/v7m\libgcc.a(_udivsi3.o)
__ulp                                             ../../yagarto/bin/../arm-none-eabi/lib/thumb\libc.a(lib_a-mprec.o)
__wctomb                                          ../../yagarto/bin/../arm-none-eabi/lib/thumb\libc.a(lib_a-wctomb_r.o)
                                                  ../../yagarto/bin/../arm-none-eabi/lib/thumb\libc.a(lib_a-wcrtomb.o)
_calloc_r                                         ../../yagarto/bin/../arm-none-eabi/lib/thumb\libc.a(lib_a-callocr.o)
                                                  ../../yagarto/bin/../arm-none-eabi/lib/thumb\libc.a(lib_a-mprec.o)
_cleanup                                          ../../yagarto/bin/../arm-none-eabi/lib/thumb\libc.a(lib_a-findfp.o)
_cleanup_r                                        ../../yagarto/bin/../arm-none-eabi/lib/thumb\libc.a(lib_a-findfp.o)
                                                  ../../yagarto/bin/../arm-none-eabi/lib/thumb\libc.a(lib_a-makebuf.o)
_close_r                                          src/syscalls.o
                                                  ../../yagarto/bin/../arm-none-eabi/lib/thumb\libc.a(lib_a-stdio.o)
_dtoa_r                                           ../../yagarto/bin/../arm-none-eabi/lib/thumb\libc.a(lib_a-dtoa.o)
                                                  ../../yagarto/bin/../arm-none-eabi/lib/thumb\libc.a(lib_a-vfprintf.o)
                                                  ../../yagarto/bin/../arm-none-eabi/lib/thumb\libc.a(lib_a-svfprintf.o)
_ebss                                             Libraries/CMSIS/Device/ST/STM32F4xx/Source/Templates/gcc_ride7/startup_stm32f4xx.o
_edata                                            Libraries/CMSIS/Device/ST/STM32F4xx/Source/Templates/gcc_ride7/startup_stm32f4xx.o
_end                                              src/tweak.o
_estack                                           Libraries/CMSIS/Device/ST/STM32F4xx/Source/Templates/gcc_ride7/startup_stm32f4xx.o
_exit                                             ../../yagarto/bin/../arm-none-eabi/lib/thumb\libc.a(lib_a-exit.o)
_fclose_r                                         ../../yagarto/bin/../arm-none-eabi/lib/thumb\libc.a(lib_a-fclose.o)
_fflush_r                                         ../../yagarto/bin/../arm-none-eabi/lib/thumb\libc.a(lib_a-fflush.o)
                                                  ../../yagarto/bin/../arm-none-eabi/lib/thumb\libc.a(lib_a-wbuf.o)
                                                  ../../yagarto/bin/../arm-none-eabi/lib/thumb\libc.a(lib_a-fvwrite.o)
                                                  ../../yagarto/bin/../arm-none-eabi/lib/thumb\libc.a(lib_a-fclose.o)
                                                  ../../yagarto/bin/../arm-none-eabi/lib/thumb\libc.a(lib_a-vfiprintf.o)
                                                  ../../yagarto/bin/../arm-none-eabi/lib/thumb\libc.a(lib_a-vfprintf.o)
_fini                                             e:/mydocument/dropbox/futuregadgetresearch/sa/eclipse_stm32/yagarto/bin/../lib/gcc/arm-none-eabi/4.6.2/thumb/v7m/crti.o
                                                  ../../yagarto/bin/../arm-none-eabi/lib/thumb\libc.a(lib_a-fini.o)
_fputwc_r                                         ../../yagarto/bin/../arm-none-eabi/lib/thumb\libc.a(lib_a-fputwc.o)
                                                  ../../yagarto/bin/../arm-none-eabi/lib/thumb\libc.a(lib_a-vfiprintf.o)
_free_r                                           ../../yagarto/bin/../arm-none-eabi/lib/thumb\libc.a(lib_a-freer.o)
                                                  ../../yagarto/bin/../arm-none-eabi/lib/thumb\libc.a(lib_a-reallocr.o)
                                                  ../../yagarto/bin/../arm-none-eabi/lib/thumb\libc.a(lib_a-fvwrite.o)
                                                  ../../yagarto/bin/../arm-none-eabi/lib/thumb\libc.a(lib_a-fclose.o)
                                                  ../../yagarto/bin/../arm-none-eabi/lib/thumb\libc.a(lib_a-svfiprintf.o)
                                                  ../../yagarto/bin/../arm-none-eabi/lib/thumb\libc.a(lib_a-reent.o)
                                                  ../../yagarto/bin/../arm-none-eabi/lib/thumb\libc.a(lib_a-fflush.o)
                                                  ../../yagarto/bin/../arm-none-eabi/lib/thumb\libc.a(lib_a-wsetup.o)
                                                  ../../yagarto/bin/../arm-none-eabi/lib/thumb\libc.a(lib_a-mallocr.o)
                                                  ../../yagarto/bin/../arm-none-eabi/lib/thumb\libc.a(lib_a-malloc.o)
_fstat_r                                          src/syscalls.o
                                                  ../../yagarto/bin/../arm-none-eabi/lib/thumb\libc.a(lib_a-makebuf.o)
_fwalk                                            ../../yagarto/bin/../arm-none-eabi/lib/thumb\libc.a(lib_a-fwalk.o)
                                                  ../../yagarto/bin/../arm-none-eabi/lib/thumb\libc.a(lib_a-findfp.o)
_fwalk_reent                                      ../../yagarto/bin/../arm-none-eabi/lib/thumb\libc.a(lib_a-fwalk.o)
                                                  ../../yagarto/bin/../arm-none-eabi/lib/thumb\libc.a(lib_a-fflush.o)
_global_impure_ptr                                ../../yagarto/bin/../arm-none-eabi/lib/thumb\libc.a(lib_a-impure.o)
                                                  ../../yagarto/bin/../arm-none-eabi/lib/thumb\libc.a(lib_a-findfp.o)
                                                  ../../yagarto/bin/../arm-none-eabi/lib/thumb\libc.a(lib_a-fflush.o)
                                                  ../../yagarto/bin/../arm-none-eabi/lib/thumb\libc.a(lib_a-__call_atexit.o)
                                                  ../../yagarto/bin/../arm-none-eabi/lib/thumb\libc.a(lib_a-__atexit.o)
                                                  ../../yagarto/bin/../arm-none-eabi/lib/thumb\libc.a(lib_a-exit.o)
_i2cAddress                                       src\Mpu-9250/HalI2c2.o
_impure_ptr                                       ../../yagarto/bin/../arm-none-eabi/lib/thumb\libc.a(lib_a-impure.o)
                                                  ../../yagarto/bin/../arm-none-eabi/lib/thumb\libc.a(lib_a-wcrtomb.o)
                                                  ../../yagarto/bin/../arm-none-eabi/lib/thumb\libc.a(lib_a-wbuf.o)
                                                  ../../yagarto/bin/../arm-none-eabi/lib/thumb\libc.a(lib_a-fputwc.o)
                                                  ../../yagarto/bin/../arm-none-eabi/lib/thumb\libc.a(lib_a-fclose.o)
                                                  ../../yagarto/bin/../arm-none-eabi/lib/thumb\libc.a(lib_a-vfiprintf.o)
                                                  ../../yagarto/bin/../arm-none-eabi/lib/thumb\libc.a(lib_a-reent.o)
                                                  ../../yagarto/bin/../arm-none-eabi/lib/thumb\libc.a(lib_a-locale.o)
                                                  ../../yagarto/bin/../arm-none-eabi/lib/thumb\libc.a(lib_a-findfp.o)
                                                  ../../yagarto/bin/../arm-none-eabi/lib/thumb\libc.a(lib_a-fflush.o)
                                                  ../../yagarto/bin/../arm-none-eabi/lib/thumb\libc.a(lib_a-wsetup.o)
                                                  ../../yagarto/bin/../arm-none-eabi/lib/thumb\libc.a(lib_a-vfprintf.o)
                                                  ../../yagarto/bin/../arm-none-eabi/lib/thumb\libc.a(lib_a-sprintf.o)
                                                  ../../yagarto/bin/../arm-none-eabi/lib/thumb\libc.a(lib_a-printf.o)
                                                  ../../yagarto/bin/../arm-none-eabi/lib/thumb\libc.a(lib_a-malloc.o)
                                                  ../../yagarto/bin/../arm-none-eabi/lib/thumb\libc.a(lib_a-errno.o)
_init                                             e:/mydocument/dropbox/futuregadgetresearch/sa/eclipse_stm32/yagarto/bin/../lib/gcc/arm-none-eabi/4.6.2/thumb/v7m/crti.o
                                                  ../../yagarto/bin/../arm-none-eabi/lib/thumb\libc.a(lib_a-init.o)
_isatty_r                                         src/syscalls.o
                                                  ../../yagarto/bin/../arm-none-eabi/lib/thumb\libc.a(lib_a-makebuf.o)
_localeconv_r                                     ../../yagarto/bin/../arm-none-eabi/lib/thumb\libc.a(lib_a-locale.o)
                                                  ../../yagarto/bin/../arm-none-eabi/lib/thumb\libc.a(lib_a-vfprintf.o)
                                                  ../../yagarto/bin/../arm-none-eabi/lib/thumb\libc.a(lib_a-svfprintf.o)
_lseek_r                                          src/syscalls.o
                                                  ../../yagarto/bin/../arm-none-eabi/lib/thumb\libc.a(lib_a-stdio.o)
_mainCRTStartup                                   e:/mydocument/dropbox/futuregadgetresearch/sa/eclipse_stm32/yagarto/bin/../lib/gcc/arm-none-eabi/4.6.2/../../../../arm-none-eabi/lib/thumb/v7m/crt0.o
_malloc_r                                         ../../yagarto/bin/../arm-none-eabi/lib/thumb\libc.a(lib_a-mallocr.o)
                                                  ../../yagarto/bin/../arm-none-eabi/lib/thumb\libc.a(lib_a-reallocr.o)
                                                  ../../yagarto/bin/../arm-none-eabi/lib/thumb\libc.a(lib_a-fvwrite.o)
                                                  ../../yagarto/bin/../arm-none-eabi/lib/thumb\libc.a(lib_a-callocr.o)
                                                  ../../yagarto/bin/../arm-none-eabi/lib/thumb\libc.a(lib_a-svfiprintf.o)
                                                  ../../yagarto/bin/../arm-none-eabi/lib/thumb\libc.a(lib_a-makebuf.o)
                                                  ../../yagarto/bin/../arm-none-eabi/lib/thumb\libc.a(lib_a-findfp.o)
                                                  ../../yagarto/bin/../arm-none-eabi/lib/thumb\libc.a(lib_a-svfprintf.o)
                                                  ../../yagarto/bin/../arm-none-eabi/lib/thumb\libc.a(lib_a-malloc.o)
_malloc_trim_r                                    ../../yagarto/bin/../arm-none-eabi/lib/thumb\libc.a(lib_a-freer.o)
_mprec_log10                                      ../../yagarto/bin/../arm-none-eabi/lib/thumb\libc.a(lib_a-mprec.o)
_printf_r                                         ../../yagarto/bin/../arm-none-eabi/lib/thumb\libc.a(lib_a-printf.o)
_read_r                                           src/syscalls.o
                                                  ../../yagarto/bin/../arm-none-eabi/lib/thumb\libc.a(lib_a-stdio.o)
_realloc_r                                        ../../yagarto/bin/../arm-none-eabi/lib/thumb\libc.a(lib_a-reallocr.o)
                                                  ../../yagarto/bin/../arm-none-eabi/lib/thumb\libc.a(lib_a-fvwrite.o)
                                                  ../../yagarto/bin/../arm-none-eabi/lib/thumb\libc.a(lib_a-svfiprintf.o)
_reclaim_reent                                    ../../yagarto/bin/../arm-none-eabi/lib/thumb\libc.a(lib_a-reent.o)
_rw                                               src\Mpu-9250/HalI2c2.o
_sbrk                                             src/tweak.o
                                                  ../../yagarto/bin/../arm-none-eabi/lib/thumb\libc.a(lib_a-sbrkr.o)
_sbrk_r                                           ../../yagarto/bin/../arm-none-eabi/lib/thumb\libc.a(lib_a-sbrkr.o)
                                                  ../../yagarto/bin/../arm-none-eabi/lib/thumb\libc.a(lib_a-freer.o)
                                                  ../../yagarto/bin/../arm-none-eabi/lib/thumb\libc.a(lib_a-mallocr.o)
_sbss                                             Libraries/CMSIS/Device/ST/STM32F4xx/Source/Templates/gcc_ride7/startup_stm32f4xx.o
_sdata                                            Libraries/CMSIS/Device/ST/STM32F4xx/Source/Templates/gcc_ride7/startup_stm32f4xx.o
_setlocale_r                                      ../../yagarto/bin/../arm-none-eabi/lib/thumb\libc.a(lib_a-locale.o)
_sidata                                           Libraries/CMSIS/Device/ST/STM32F4xx/Source/Templates/gcc_ride7/startup_stm32f4xx.o
_sprintf_r                                        ../../yagarto/bin/../arm-none-eabi/lib/thumb\libc.a(lib_a-sprintf.o)
_start                                            e:/mydocument/dropbox/futuregadgetresearch/sa/eclipse_stm32/yagarto/bin/../lib/gcc/arm-none-eabi/4.6.2/../../../../arm-none-eabi/lib/thumb/v7m/crt0.o
_state                                            src\Mpu-9250/HalI2c2.o
_svfiprintf_r                                     ../../yagarto/bin/../arm-none-eabi/lib/thumb\libc.a(lib_a-svfiprintf.o)
_svfprintf_r                                      ../../yagarto/bin/../arm-none-eabi/lib/thumb\libc.a(lib_a-svfprintf.o)
                                                  ../../yagarto/bin/../arm-none-eabi/lib/thumb\libc.a(lib_a-sprintf.o)
_vfiprintf_r                                      ../../yagarto/bin/../arm-none-eabi/lib/thumb\libc.a(lib_a-vfiprintf.o)
_vfprintf_r                                       ../../yagarto/bin/../arm-none-eabi/lib/thumb\libc.a(lib_a-vfprintf.o)
                                                  ../../yagarto/bin/../arm-none-eabi/lib/thumb\libc.a(lib_a-printf.o)
_wcrtomb_r                                        ../../yagarto/bin/../arm-none-eabi/lib/thumb\libc.a(lib_a-wcrtomb.o)
                                                  ../../yagarto/bin/../arm-none-eabi/lib/thumb\libc.a(lib_a-fputwc.o)
_wctomb_r                                         ../../yagarto/bin/../arm-none-eabi/lib/thumb\libc.a(lib_a-wctomb_r.o)
_wrapup_reent                                     ../../yagarto/bin/../arm-none-eabi/lib/thumb\libc.a(lib_a-reent.o)
_write_r                                          src/syscalls.o
                                                  ../../yagarto/bin/../arm-none-eabi/lib/thumb\libc.a(lib_a-stdio.o)
abort                                             src/syscalls.o
atexit                                            ../../yagarto/bin/../arm-none-eabi/lib/thumb\libc.a(lib_a-atexit.o)
                                                  e:/mydocument/dropbox/futuregadgetresearch/sa/eclipse_stm32/yagarto/bin/../lib/gcc/arm-none-eabi/4.6.2/../../../../arm-none-eabi/lib/thumb/v7m/crt0.o
buf                                               src\Stdout/SerialCommand.o
callbackUsart2CrReceived(char*)                   src\Stdout/HalUsart.o
cleanup_glue                                      ../../yagarto/bin/../arm-none-eabi/lib/thumb\libc.a(lib_a-reent.o)
errno                                             ../../yagarto/bin/../arm-none-eabi/lib/thumb\libc.a(lib_a-reent.o)
                                                  ../../yagarto/bin/../arm-none-eabi/lib/thumb\libc.a(lib_a-sbrkr.o)
exit                                              ../../yagarto/bin/../arm-none-eabi/lib/thumb\libc.a(lib_a-exit.o)
                                                  e:/mydocument/dropbox/futuregadgetresearch/sa/eclipse_stm32/yagarto/bin/../lib/gcc/arm-none-eabi/4.6.2/../../../../arm-none-eabi/lib/thumb/v7m/crt0.o
fclose                                            ../../yagarto/bin/../arm-none-eabi/lib/thumb\libc.a(lib_a-fclose.o)
                                                  ../../yagarto/bin/../arm-none-eabi/lib/thumb\libc.a(lib_a-findfp.o)
fflush                                            ../../yagarto/bin/../arm-none-eabi/lib/thumb\libc.a(lib_a-fflush.o)
fputwc                                            ../../yagarto/bin/../arm-none-eabi/lib/thumb\libc.a(lib_a-fputwc.o)
free                                              ../../yagarto/bin/../arm-none-eabi/lib/thumb\libc.a(lib_a-malloc.o)
                                                  ../../yagarto/bin/../arm-none-eabi/lib/thumb\libc.a(lib_a-__call_atexit.o)
                                                  src/tweak.o
g_pfnVectors                                      Libraries/CMSIS/Device/ST/STM32F4xx/Source/Templates/gcc_ride7/startup_stm32f4xx.o
handleSerialCommand(char*)                        src\Stdout/SerialCommand.o
                                                  src\Stdout/HalUsart.o
hardware_init_hook                                e:/mydocument/dropbox/futuregadgetresearch/sa/eclipse_stm32/yagarto/bin/../lib/gcc/arm-none-eabi/4.6.2/../../../../arm-none-eabi/lib/thumb/v7m/crt0.o
i2c2Read(char, char, char*, int)                  src\Mpu-9250/HalI2c2.o
i2c2RxBuf                                         src\Mpu-9250/HalI2c2.o
i2c2Sem                                           src\Mpu-9250/HalI2c2.o
i2c2TxBuf                                         src\Mpu-9250/HalI2c2.o
i2c2Write(char, char, char*, int)                 src\Mpu-9250/HalI2c2.o
i2c2Write1(char, char, char)                      src\Mpu-9250/HalI2c2.o
initI2c2()                                        src\Mpu-9250/HalI2c2.o
                                                  src/main.o
initSpi()                                         src\Adis16488/HalSpi.o
                                                  src/main.o
initTim()                                         src\Servo/HalTim.o
                                                  src/main.o
initUart(USART_TypeDef*)                          src\Stdout/HalUsart.o
                                                  src/main.o
localeconv                                        ../../yagarto/bin/../arm-none-eabi/lib/thumb\libc.a(lib_a-locale.o)
main                                              src/main.o
                                                  Libraries/CMSIS/Device/ST/STM32F4xx/Source/Templates/gcc_ride7/startup_stm32f4xx.o
                                                  e:/mydocument/dropbox/futuregadgetresearch/sa/eclipse_stm32/yagarto/bin/../lib/gcc/arm-none-eabi/4.6.2/../../../../arm-none-eabi/lib/thumb/v7m/crt0.o
malloc                                            ../../yagarto/bin/../arm-none-eabi/lib/thumb\libc.a(lib_a-malloc.o)
                                                  ../../yagarto/bin/../arm-none-eabi/lib/thumb\libc.a(lib_a-__atexit.o)
                                                  src\Adis16488/HalSpi.o
                                                  src/tweak.o
                                                  src\Mpu-9250/HalI2c2.o
                                                  src\Stdout/HalUsart.o
memchr                                            ../../yagarto/bin/../arm-none-eabi/lib/thumb\libc.a(lib_a-memchr.o)
                                                  ../../yagarto/bin/../arm-none-eabi/lib/thumb\libc.a(lib_a-fvwrite.o)
                                                  ../../yagarto/bin/../arm-none-eabi/lib/thumb\libc.a(lib_a-vfiprintf.o)
                                                  ../../yagarto/bin/../arm-none-eabi/lib/thumb\libc.a(lib_a-svfiprintf.o)
                                                  ../../yagarto/bin/../arm-none-eabi/lib/thumb\libc.a(lib_a-vfprintf.o)
                                                  ../../yagarto/bin/../arm-none-eabi/lib/thumb\libc.a(lib_a-svfprintf.o)
memcmp                                            ../../yagarto/bin/../arm-none-eabi/lib/thumb\libc.a(lib_a-memcmp.o)
                                                  Libraries/libstm32f4xx.a(tasks.o)
memcpy                                            ../../yagarto/bin/../arm-none-eabi/lib/thumb\libc.a(lib_a-memcpy.o)
                                                  ../../yagarto/bin/../arm-none-eabi/lib/thumb\libc.a(lib_a-fvwrite.o)
                                                  ../../yagarto/bin/../arm-none-eabi/lib/thumb\libc.a(lib_a-svfiprintf.o)
                                                  ../../yagarto/bin/../arm-none-eabi/lib/thumb\libc.a(lib_a-mprec.o)
                                                  ../../yagarto/bin/../arm-none-eabi/lib/thumb\libc.a(lib_a-dtoa.o)
                                                  Libraries/libstm32f4xx.a(queue.o)
memmove                                           ../../yagarto/bin/../arm-none-eabi/lib/thumb\libc.a(lib_a-memmove.o)
                                                  ../../yagarto/bin/../arm-none-eabi/lib/thumb\libc.a(lib_a-reallocr.o)
                                                  ../../yagarto/bin/../arm-none-eabi/lib/thumb\libc.a(lib_a-fvwrite.o)
                                                  ../../yagarto/bin/../arm-none-eabi/lib/thumb\libc.a(lib_a-svfiprintf.o)
memset                                            ../../yagarto/bin/../arm-none-eabi/lib/thumb\libc.a(lib_a-memset.o)
                                                  ../../yagarto/bin/../arm-none-eabi/lib/thumb\libc.a(lib_a-callocr.o)
                                                  ../../yagarto/bin/../arm-none-eabi/lib/thumb\libc.a(lib_a-findfp.o)
                                                  Libraries/libstm32f4xx.a(tasks.o)
                                                  src/syscalls.o
                                                  e:/mydocument/dropbox/futuregadgetresearch/sa/eclipse_stm32/yagarto/bin/../lib/gcc/arm-none-eabi/4.6.2/../../../../arm-none-eabi/lib/thumb/v7m/crt0.o
myDMA1_Stream2_IRQHandler()                       src\Mpu-9250/HalI2c2.o
                                                  src/stm32f4xx_it.o
myDMA1_Stream7_IRQHandler()                       src\Mpu-9250/HalI2c2.o
                                                  src/stm32f4xx_it.o
myI2C2_ER_IRQHandler()                            src\Mpu-9250/HalI2c2.o
                                                  src/stm32f4xx_it.o
myI2C2_EV_IRQHandler()                            src\Mpu-9250/HalI2c2.o
                                                  src/stm32f4xx_it.o
myI2C2_EV_IRQ_Read1()                             src\Mpu-9250/HalI2c2.o
myI2C2_EV_IRQ_ReadN()                             src\Mpu-9250/HalI2c2.o
myI2C2_EV_IRQ_Write()                             src\Mpu-9250/HalI2c2.o
operator delete(void*)                            src/tweak.o
operator delete[](void*)                          src/tweak.o
operator new(unsigned int)                        src/tweak.o
operator new[](unsigned int)                      src/tweak.o
printf                                            ../../yagarto/bin/../arm-none-eabi/lib/thumb\libc.a(lib_a-printf.o)
                                                  src\Stdout/SerialCommand.o
                                                  src/main.o
                                                  src\Mpu-9250/HalI2c2.o
prvAdis16488Task(void*)                           src\Adis16488/HalSpi.o
                                                  src/main.o
prvI2C2SendTask(void*)                            src\Mpu-9250/HalI2c2.o
                                                  src/main.o
prvRxTask(void*)                                  src\Stdout/HalUsart.o
                                                  src/main.o
prvTaskA(void*)                                   src/main.o
prvTaskB(void*)                                   src/main.o
prvTxTask(void*)                                  src\Stdout/HalUsart.o
                                                  src/main.o
pvPortMalloc                                      Libraries/libstm32f4xx.a(heap_2.o)
                                                  Libraries/libstm32f4xx.a(timers.o)
                                                  Libraries/libstm32f4xx.a(tasks.o)
                                                  Libraries/libstm32f4xx.a(queue.o)
pvTimerGetTimerID                                 Libraries/libstm32f4xx.a(timers.o)
pxCurrentTCB                                      Libraries/libstm32f4xx.a(tasks.o)
                                                  Libraries/libstm32f4xx.a(port.o)
pxPortInitialiseStack                             Libraries/libstm32f4xx.a(port.o)
                                                  Libraries/libstm32f4xx.a(tasks.o)
setlocale                                         ../../yagarto/bin/../arm-none-eabi/lib/thumb\libc.a(lib_a-locale.o)
software_init_hook                                e:/mydocument/dropbox/futuregadgetresearch/sa/eclipse_stm32/yagarto/bin/../lib/gcc/arm-none-eabi/4.6.2/../../../../arm-none-eabi/lib/thumb/v7m/crt0.o
spi1RxBuf                                         src\Adis16488/HalSpi.o
spi1TxBuf                                         src\Adis16488/HalSpi.o
sprintf                                           ../../yagarto/bin/../arm-none-eabi/lib/thumb\libc.a(lib_a-sprintf.o)
                                                  Libraries/libstm32f4xx.a(tasks.o)
start                                             e:/mydocument/dropbox/futuregadgetresearch/sa/eclipse_stm32/yagarto/bin/../lib/gcc/arm-none-eabi/4.6.2/../../../../arm-none-eabi/lib/thumb/v7m/crt0.o
strcmp                                            ../../yagarto/bin/../arm-none-eabi/lib/thumb\libc.a(lib_a-strcmp.o)
                                                  ../../yagarto/bin/../arm-none-eabi/lib/thumb\libc.a(lib_a-locale.o)
strlen                                            ../../yagarto/bin/../arm-none-eabi/lib/thumb\libc.a(lib_a-strlen.o)
                                                  ../../yagarto/bin/../arm-none-eabi/lib/thumb\libc.a(lib_a-vfiprintf.o)
                                                  ../../yagarto/bin/../arm-none-eabi/lib/thumb\libc.a(lib_a-svfiprintf.o)
                                                  ../../yagarto/bin/../arm-none-eabi/lib/thumb\libc.a(lib_a-vfprintf.o)
                                                  ../../yagarto/bin/../arm-none-eabi/lib/thumb\libc.a(lib_a-svfprintf.o)
                                                  Libraries/libstm32f4xx.a(tasks.o)
strncmp                                           ../../yagarto/bin/../arm-none-eabi/lib/thumb\libc.a(lib_a-strncmp.o)
                                                  src\Stdout/SerialCommand.o
ucQueueGetQueueNumber                             Libraries/libstm32f4xx.a(queue.o)
ucQueueGetQueueType                               Libraries/libstm32f4xx.a(queue.o)
ulPortSetInterruptMask                            Libraries/libstm32f4xx.a(port.o)
                                                  Libraries/libstm32f4xx.a(timers.o)
                                                  Libraries/libstm32f4xx.a(tasks.o)
                                                  Libraries/libstm32f4xx.a(queue.o)
uputc(USART_TypeDef*, char)                       src\Stdout/HalUsart.o
                                                  src/syscalls.o
usart2Que                                         src\Stdout/HalUsart.o
usart2RxBuf                                       src\Stdout/HalUsart.o
usart2TxBuf                                       src\Stdout/HalUsart.o
uxListRemove                                      Libraries/libstm32f4xx.a(list.o)
                                                  Libraries/libstm32f4xx.a(timers.o)
                                                  Libraries/libstm32f4xx.a(tasks.o)
uxQueueMessagesWaiting                            Libraries/libstm32f4xx.a(queue.o)
                                                  src\Stdout/HalUsart.o
uxQueueMessagesWaitingFromISR                     Libraries/libstm32f4xx.a(queue.o)
uxQueueSpacesAvailable                            Libraries/libstm32f4xx.a(queue.o)
uxTaskGetNumberOfTasks                            Libraries/libstm32f4xx.a(tasks.o)
uxTaskGetStackHighWaterMark                       Libraries/libstm32f4xx.a(tasks.o)
uxTaskGetSystemState                              Libraries/libstm32f4xx.a(tasks.o)
uxTaskGetTaskNumber                               Libraries/libstm32f4xx.a(tasks.o)
uxTaskPriorityGet                                 Libraries/libstm32f4xx.a(tasks.o)
vApplicationIdleHook()                            src/main.o
                                                  Libraries/libstm32f4xx.a(tasks.o)
vApplicationMallocFailedHook()                    src/main.o
                                                  Libraries/libstm32f4xx.a(heap_2.o)
vApplicationStackOverflowHook(void*, signed char*) src/main.o
                                                  Libraries/libstm32f4xx.a(tasks.o)
vApplicationTickHook()                            src/main.o
                                                  Libraries/libstm32f4xx.a(tasks.o)
vListInitialise                                   Libraries/libstm32f4xx.a(list.o)
                                                  Libraries/libstm32f4xx.a(timers.o)
                                                  Libraries/libstm32f4xx.a(tasks.o)
                                                  Libraries/libstm32f4xx.a(queue.o)
vListInitialiseItem                               Libraries/libstm32f4xx.a(list.o)
                                                  Libraries/libstm32f4xx.a(timers.o)
                                                  Libraries/libstm32f4xx.a(tasks.o)
vListInsert                                       Libraries/libstm32f4xx.a(list.o)
                                                  Libraries/libstm32f4xx.a(timers.o)
                                                  Libraries/libstm32f4xx.a(tasks.o)
vListInsertEnd                                    Libraries/libstm32f4xx.a(list.o)
                                                  Libraries/libstm32f4xx.a(tasks.o)
vPortClearInterruptMask                           Libraries/libstm32f4xx.a(port.o)
                                                  Libraries/libstm32f4xx.a(tasks.o)
                                                  Libraries/libstm32f4xx.a(queue.o)
vPortEndScheduler                                 Libraries/libstm32f4xx.a(port.o)
                                                  Libraries/libstm32f4xx.a(tasks.o)
vPortEnterCritical                                Libraries/libstm32f4xx.a(port.o)
                                                  Libraries/libstm32f4xx.a(timers.o)
                                                  Libraries/libstm32f4xx.a(tasks.o)
                                                  Libraries/libstm32f4xx.a(queue.o)
vPortExitCritical                                 Libraries/libstm32f4xx.a(port.o)
                                                  Libraries/libstm32f4xx.a(timers.o)
                                                  Libraries/libstm32f4xx.a(tasks.o)
                                                  Libraries/libstm32f4xx.a(queue.o)
vPortFree                                         Libraries/libstm32f4xx.a(heap_2.o)
                                                  Libraries/libstm32f4xx.a(timers.o)
                                                  Libraries/libstm32f4xx.a(tasks.o)
                                                  Libraries/libstm32f4xx.a(queue.o)
vPortInitialiseBlocks                             Libraries/libstm32f4xx.a(heap_2.o)
vPortSVCHandler()                                 Libraries/libstm32f4xx.a(port.o)
                                                  src/stm32f4xx_it.o
vPortSetupTimerInterrupt()                        Libraries/libstm32f4xx.a(port.o)
vPortValidateInterruptPriority                    Libraries/libstm32f4xx.a(port.o)
                                                  Libraries/libstm32f4xx.a(tasks.o)
                                                  Libraries/libstm32f4xx.a(queue.o)
vPortYield                                        Libraries/libstm32f4xx.a(port.o)
                                                  Libraries/libstm32f4xx.a(timers.o)
                                                  Libraries/libstm32f4xx.a(tasks.o)
                                                  Libraries/libstm32f4xx.a(queue.o)
vQueueAddToRegistry                               Libraries/libstm32f4xx.a(queue.o)
vQueueDelete                                      Libraries/libstm32f4xx.a(queue.o)
vQueueSetQueueNumber                              Libraries/libstm32f4xx.a(queue.o)
vQueueUnregisterQueue                             Libraries/libstm32f4xx.a(queue.o)
vQueueWaitForMessageRestricted                    Libraries/libstm32f4xx.a(queue.o)
                                                  Libraries/libstm32f4xx.a(timers.o)
vTaskDelay                                        Libraries/libstm32f4xx.a(tasks.o)
                                                  src\Adis16488/HalSpi.o
                                                  src/main.o
                                                  src\Mpu-9250/HalI2c2.o
                                                  src\Stdout/HalUsart.o
vTaskDelayUntil                                   Libraries/libstm32f4xx.a(tasks.o)
                                                  src\Stdout/HalUsart.o
vTaskDelete                                       Libraries/libstm32f4xx.a(tasks.o)
vTaskEndScheduler                                 Libraries/libstm32f4xx.a(tasks.o)
vTaskList                                         Libraries/libstm32f4xx.a(tasks.o)
                                                  src\Stdout/SerialCommand.o
vTaskMissedYield                                  Libraries/libstm32f4xx.a(tasks.o)
                                                  Libraries/libstm32f4xx.a(queue.o)
vTaskPlaceOnEventList                             Libraries/libstm32f4xx.a(tasks.o)
                                                  Libraries/libstm32f4xx.a(queue.o)
vTaskPlaceOnEventListRestricted                   Libraries/libstm32f4xx.a(tasks.o)
                                                  Libraries/libstm32f4xx.a(queue.o)
vTaskPriorityDisinherit                           Libraries/libstm32f4xx.a(tasks.o)
                                                  Libraries/libstm32f4xx.a(queue.o)
vTaskPriorityInherit                              Libraries/libstm32f4xx.a(tasks.o)
                                                  Libraries/libstm32f4xx.a(queue.o)
vTaskPrioritySet                                  Libraries/libstm32f4xx.a(tasks.o)
vTaskResume                                       Libraries/libstm32f4xx.a(tasks.o)
vTaskSetTaskNumber                                Libraries/libstm32f4xx.a(tasks.o)
vTaskSetTimeOutState                              Libraries/libstm32f4xx.a(tasks.o)
                                                  Libraries/libstm32f4xx.a(queue.o)
vTaskStartScheduler                               Libraries/libstm32f4xx.a(tasks.o)
                                                  src/main.o
vTaskSuspend                                      Libraries/libstm32f4xx.a(tasks.o)
vTaskSuspendAll                                   Libraries/libstm32f4xx.a(tasks.o)
                                                  Libraries/libstm32f4xx.a(heap_2.o)
                                                  Libraries/libstm32f4xx.a(timers.o)
                                                  Libraries/libstm32f4xx.a(queue.o)
vTaskSwitchContext                                Libraries/libstm32f4xx.a(tasks.o)
                                                  Libraries/libstm32f4xx.a(port.o)
vfiprintf                                         ../../yagarto/bin/../arm-none-eabi/lib/thumb\libc.a(lib_a-vfiprintf.o)
vfprintf                                          ../../yagarto/bin/../arm-none-eabi/lib/thumb\libc.a(lib_a-vfprintf.o)
wcrtomb                                           ../../yagarto/bin/../arm-none-eabi/lib/thumb\libc.a(lib_a-wcrtomb.o)
xPortGetFreeHeapSize                              Libraries/libstm32f4xx.a(heap_2.o)
xPortPendSVHandler()                              Libraries/libstm32f4xx.a(port.o)
                                                  src/stm32f4xx_it.o
xPortStartScheduler                               Libraries/libstm32f4xx.a(port.o)
                                                  Libraries/libstm32f4xx.a(tasks.o)
xPortSysTickHandler()                             Libraries/libstm32f4xx.a(port.o)
                                                  src/stm32f4xx_it.o
xQueueCreateCountingSemaphore                     Libraries/libstm32f4xx.a(queue.o)
xQueueCreateMutex                                 Libraries/libstm32f4xx.a(queue.o)
xQueueGenericCreate                               Libraries/libstm32f4xx.a(queue.o)
                                                  Libraries/libstm32f4xx.a(timers.o)
                                                  src\Mpu-9250/HalI2c2.o
                                                  src\Stdout/HalUsart.o
xQueueGenericReceive                              Libraries/libstm32f4xx.a(queue.o)
                                                  Libraries/libstm32f4xx.a(timers.o)
                                                  src\Mpu-9250/HalI2c2.o
                                                  src\Stdout/HalUsart.o
xQueueGenericReset                                Libraries/libstm32f4xx.a(queue.o)
xQueueGenericSend                                 Libraries/libstm32f4xx.a(queue.o)
                                                  Libraries/libstm32f4xx.a(timers.o)
                                                  src\Mpu-9250/HalI2c2.o
xQueueGenericSendFromISR                          Libraries/libstm32f4xx.a(queue.o)
                                                  Libraries/libstm32f4xx.a(timers.o)
                                                  src\Mpu-9250/HalI2c2.o
                                                  src\Stdout/HalUsart.o
xQueueGiveMutexRecursive                          Libraries/libstm32f4xx.a(queue.o)
xQueueIsQueueEmptyFromISR                         Libraries/libstm32f4xx.a(queue.o)
xQueueIsQueueFullFromISR                          Libraries/libstm32f4xx.a(queue.o)
xQueuePeekFromISR                                 Libraries/libstm32f4xx.a(queue.o)
xQueueReceiveFromISR                              Libraries/libstm32f4xx.a(queue.o)
xQueueRegistry                                    Libraries/libstm32f4xx.a(queue.o)
xQueueTakeMutexRecursive                          Libraries/libstm32f4xx.a(queue.o)
xTaskCheckForTimeOut                              Libraries/libstm32f4xx.a(tasks.o)
                                                  Libraries/libstm32f4xx.a(queue.o)
xTaskGenericCreate                                Libraries/libstm32f4xx.a(tasks.o)
                                                  Libraries/libstm32f4xx.a(timers.o)
                                                  src/main.o
xTaskGetCurrentTaskHandle                         Libraries/libstm32f4xx.a(tasks.o)
                                                  Libraries/libstm32f4xx.a(queue.o)
xTaskGetSchedulerState                            Libraries/libstm32f4xx.a(tasks.o)
                                                  Libraries/libstm32f4xx.a(timers.o)
xTaskGetTickCount                                 Libraries/libstm32f4xx.a(tasks.o)
                                                  Libraries/libstm32f4xx.a(timers.o)
                                                  src\Stdout/HalUsart.o
xTaskGetTickCountFromISR                          Libraries/libstm32f4xx.a(tasks.o)
xTaskIncrementTick                                Libraries/libstm32f4xx.a(tasks.o)
                                                  Libraries/libstm32f4xx.a(port.o)
xTaskIsTaskSuspended                              Libraries/libstm32f4xx.a(tasks.o)
xTaskRemoveFromEventList                          Libraries/libstm32f4xx.a(tasks.o)
                                                  Libraries/libstm32f4xx.a(queue.o)
xTaskResumeAll                                    Libraries/libstm32f4xx.a(tasks.o)
                                                  Libraries/libstm32f4xx.a(heap_2.o)
                                                  Libraries/libstm32f4xx.a(timers.o)
                                                  Libraries/libstm32f4xx.a(queue.o)
xTaskResumeFromISR                                Libraries/libstm32f4xx.a(tasks.o)
xTimerCreate                                      Libraries/libstm32f4xx.a(timers.o)
xTimerCreateTimerTask                             Libraries/libstm32f4xx.a(timers.o)
                                                  Libraries/libstm32f4xx.a(tasks.o)
xTimerGenericCommand                              Libraries/libstm32f4xx.a(timers.o)
xTimerIsTimerActive                               Libraries/libstm32f4xx.a(timers.o)
